	.file	"main.cpp"
	.text
.Ltext0:
	.file 0 "/home/pppptttt/Desktop/study/parallel-vk/hw1/cmake-build-debug" "/home/pppptttt/Desktop/study/parallel-vk/hw1/main.cpp"
	.section	.text._ZSt23__is_constant_evaluatedv,"axG",@progbits,_ZSt23__is_constant_evaluatedv,comdat
	.weak	_ZSt23__is_constant_evaluatedv
	.type	_ZSt23__is_constant_evaluatedv, @function
_ZSt23__is_constant_evaluatedv:
.LFB310:
	.file 1 "/usr/include/x86_64-linux-gnu/c++/13/bits/c++config.h"
	.loc 1 541 3
	.cfi_startproc
	endbr64
	pushq	%rbp
	.cfi_def_cfa_offset 16
	.cfi_offset 6, -16
	movq	%rsp, %rbp
	.cfi_def_cfa_register 6
	.loc 1 547 44
	movl	$0, %eax
	.loc 1 551 3
	popq	%rbp
	.cfi_def_cfa 7, 8
	ret
	.cfi_endproc
.LFE310:
	.size	_ZSt23__is_constant_evaluatedv, .-_ZSt23__is_constant_evaluatedv
	.section	.text._ZSt3absf,"axG",@progbits,_ZSt3absf,comdat
	.weak	_ZSt3absf
	.type	_ZSt3absf, @function
_ZSt3absf:
.LFB320:
	.file 2 "/usr/include/c++/13/bits/std_abs.h"
	.loc 2 76 3
	.cfi_startproc
	endbr64
	pushq	%rbp
	.cfi_def_cfa_offset 16
	.cfi_offset 6, -16
	movq	%rsp, %rbp
	.cfi_def_cfa_register 6
	vmovss	%xmm0, -4(%rbp)
	.loc 2 76 31
	vmovss	-4(%rbp), %xmm0
	vmovss	.LC0(%rip), %xmm1
	vandps	%xmm1, %xmm0, %xmm0
	.loc 2 76 34
	popq	%rbp
	.cfi_def_cfa 7, 8
	ret
	.cfi_endproc
.LFE320:
	.size	_ZSt3absf, .-_ZSt3absf
	.section	.text._ZNKSt6chrono8durationIlSt5ratioILl1ELl1000000000EEE5countEv,"axG",@progbits,_ZNKSt6chrono8durationIlSt5ratioILl1ELl1000000000EEE5countEv,comdat
	.align 2
	.weak	_ZNKSt6chrono8durationIlSt5ratioILl1ELl1000000000EEE5countEv
	.type	_ZNKSt6chrono8durationIlSt5ratioILl1ELl1000000000EEE5countEv, @function
_ZNKSt6chrono8durationIlSt5ratioILl1ELl1000000000EEE5countEv:
.LFB5254:
	.file 3 "/usr/include/c++/13/bits/chrono.h"
	.loc 3 589 2
	.cfi_startproc
	endbr64
	pushq	%rbp
	.cfi_def_cfa_offset 16
	.cfi_offset 6, -16
	movq	%rsp, %rbp
	.cfi_def_cfa_register 6
	movq	%rdi, -8(%rbp)
	.loc 3 590 11
	movq	-8(%rbp), %rax
	movq	(%rax), %rax
	.loc 3 590 16
	popq	%rbp
	.cfi_def_cfa 7, 8
	ret
	.cfi_endproc
.LFE5254:
	.size	_ZNKSt6chrono8durationIlSt5ratioILl1ELl1000000000EEE5countEv, .-_ZNKSt6chrono8durationIlSt5ratioILl1ELl1000000000EEE5countEv
	.section	.text._ZNSt6chrono8durationIlSt5ratioILl1ELl1000000000EEEC1IlvEERKT_,"axG",@progbits,_ZNSt6chrono8durationIlSt5ratioILl1ELl1000000000EEEC1IlvEERKT_,comdat
	.align 2
	.weak	_ZNSt6chrono8durationIlSt5ratioILl1ELl1000000000EEEC1IlvEERKT_
	.type	_ZNSt6chrono8durationIlSt5ratioILl1ELl1000000000EEEC1IlvEERKT_, @function
_ZNSt6chrono8durationIlSt5ratioILl1ELl1000000000EEEC1IlvEERKT_:
.LFB5260:
	.loc 3 573 23
	.cfi_startproc
	endbr64
	pushq	%rbp
	.cfi_def_cfa_offset 16
	.cfi_offset 6, -16
	movq	%rsp, %rbp
	.cfi_def_cfa_register 6
	movq	%rdi, -8(%rbp)
	movq	%rsi, -16(%rbp)
.LBB22:
	.loc 3 574 10
	movq	-16(%rbp), %rax
	movq	(%rax), %rdx
	.loc 3 574 6
	movq	-8(%rbp), %rax
	movq	%rdx, (%rax)
.LBE22:
	.loc 3 574 37
	nop
	popq	%rbp
	.cfi_def_cfa 7, 8
	ret
	.cfi_endproc
.LFE5260:
	.size	_ZNSt6chrono8durationIlSt5ratioILl1ELl1000000000EEEC1IlvEERKT_, .-_ZNSt6chrono8durationIlSt5ratioILl1ELl1000000000EEEC1IlvEERKT_
	.section	.text._ZNSt11char_traitsIcE6lengthEPKc,"axG",@progbits,_ZNSt11char_traitsIcE6lengthEPKc,comdat
	.weak	_ZNSt11char_traitsIcE6lengthEPKc
	.type	_ZNSt11char_traitsIcE6lengthEPKc, @function
_ZNSt11char_traitsIcE6lengthEPKc:
.LFB5454:
	.file 4 "/usr/include/c++/13/bits/char_traits.h"
	.loc 4 393 7
	.cfi_startproc
	endbr64
	pushq	%rbp
	.cfi_def_cfa_offset 16
	.cfi_offset 6, -16
	movq	%rsp, %rbp
	.cfi_def_cfa_register 6
	subq	$16, %rsp
	movq	%rdi, -8(%rbp)
	.loc 4 396 34
	call	_ZSt23__is_constant_evaluatedv
	.loc 4 396 2 discriminator 1
	testb	%al, %al
	je	.L9
	.loc 4 397 52
	movq	-8(%rbp), %rax
	movq	%rax, %rdi
	call	_ZN9__gnu_cxx11char_traitsIcE6lengthEPKc
	.loc 4 397 56
	jmp	.L10
.L9:
	.loc 4 399 25
	movq	-8(%rbp), %rax
	movq	%rax, %rdi
	call	strlen@PLT
	.loc 4 399 29
	nop
.L10:
	.loc 4 400 7
	leave
	.cfi_def_cfa 7, 8
	ret
	.cfi_endproc
.LFE5454:
	.size	_ZNSt11char_traitsIcE6lengthEPKc, .-_ZNSt11char_traitsIcE6lengthEPKc
#APP
	.globl _ZSt21ios_base_library_initv
#NO_APP
	.section	.text._ZSt3loge,"axG",@progbits,_ZSt3loge,comdat
	.weak	_ZSt3loge
	.type	_ZSt3loge, @function
_ZSt3loge:
.LFB10749:
	.file 5 "/usr/include/c++/13/cmath"
	.loc 5 327 3
	.cfi_startproc
	endbr64
	pushq	%rbp
	.cfi_def_cfa_offset 16
	.cfi_offset 6, -16
	movq	%rsp, %rbp
	.cfi_def_cfa_register 6
	.loc 5 327 26
	pushq	24(%rbp)
	pushq	16(%rbp)
	call	logl@PLT
	addq	$16, %rsp
	.loc 5 327 33
	leave
	.cfi_def_cfa 7, 8
	ret
	.cfi_endproc
.LFE10749:
	.size	_ZSt3loge, .-_ZSt3loge
	.section	.text._ZSt9nextafterff,"axG",@progbits,_ZSt9nextafterff,comdat
	.weak	_ZSt9nextafterff
	.type	_ZSt9nextafterff, @function
_ZSt9nextafterff:
.LFB10890:
	.loc 5 2417 3
	.cfi_startproc
	endbr64
	pushq	%rbp
	.cfi_def_cfa_offset 16
	.cfi_offset 6, -16
	movq	%rsp, %rbp
	.cfi_def_cfa_register 6
	subq	$16, %rsp
	vmovss	%xmm0, -4(%rbp)
	vmovss	%xmm1, -8(%rbp)
	.loc 5 2417 32
	vmovss	-8(%rbp), %xmm0
	movl	-4(%rbp), %eax
	vmovaps	%xmm0, %xmm1
	vmovd	%eax, %xmm0
	call	nextafterf@PLT
	.loc 5 2417 44
	leave
	.cfi_def_cfa 7, 8
	ret
	.cfi_endproc
.LFE10890:
	.size	_ZSt9nextafterff, .-_ZSt9nextafterff
	.section	.rodata
	.align 8
	.type	_ZN12_GLOBAL__N_1L5kSizeE, @object
	.size	_ZN12_GLOBAL__N_1L5kSizeE, 8
_ZN12_GLOBAL__N_1L5kSizeE:
	.quad	1000000
	.local	_ZN12_GLOBAL__N_12v1E
	.comm	_ZN12_GLOBAL__N_12v1E,4000000,32
	.local	_ZN12_GLOBAL__N_12v2E
	.comm	_ZN12_GLOBAL__N_12v2E,4000000,32
	.local	_ZN12_GLOBAL__N_19out_naiveE
	.comm	_ZN12_GLOBAL__N_19out_naiveE,4000000,32
	.local	_ZN12_GLOBAL__N_17out_sseE
	.comm	_ZN12_GLOBAL__N_17out_sseE,4000000,32
	.local	_ZN12_GLOBAL__N_17out_avxE
	.comm	_ZN12_GLOBAL__N_17out_avxE,4000000,32
	.text
	.globl	NaiveSum
	.type	NaiveSum, @function
NaiveSum:
.LFB11773:
	.file 6 "/home/pppptttt/Desktop/study/parallel-vk/hw1/main.cpp"
	.loc 6 19 28
	.cfi_startproc
	endbr64
	pushq	%rbp
	.cfi_def_cfa_offset 16
	.cfi_offset 6, -16
	movq	%rsp, %rbp
	.cfi_def_cfa_register 6
.LBB23:
	.loc 6 20 22
	movq	$0, -8(%rbp)
	.loc 6 20 5
	jmp	.L16
.L17:
	.loc 6 21 28
	movq	-8(%rbp), %rax
	leaq	0(,%rax,4), %rdx
	leaq	_ZN12_GLOBAL__N_12v1E(%rip), %rax
	vmovss	(%rdx,%rax), %xmm1
	.loc 6 21 36
	movq	-8(%rbp), %rax
	leaq	0(,%rax,4), %rdx
	leaq	_ZN12_GLOBAL__N_12v2E(%rip), %rax
	vmovss	(%rdx,%rax), %xmm0
	.loc 6 21 30
	vaddss	%xmm0, %xmm1, %xmm0
	.loc 6 21 22
	movq	-8(%rbp), %rax
	leaq	0(,%rax,4), %rdx
	leaq	_ZN12_GLOBAL__N_19out_naiveE(%rip), %rax
	vmovss	%xmm0, (%rdx,%rax)
	.loc 6 20 5 discriminator 3
	addq	$1, -8(%rbp)
.L16:
	.loc 6 20 31 discriminator 1
	cmpq	$999999, -8(%rbp)
	jbe	.L17
.LBE23:
	.loc 6 23 1
	nop
	nop
	popq	%rbp
	.cfi_def_cfa 7, 8
	ret
	.cfi_endproc
.LFE11773:
	.size	NaiveSum, .-NaiveSum
	.globl	SseSum
	.type	SseSum, @function
SseSum:
.LFB11774:
	.loc 6 25 26
	.cfi_startproc
	endbr64
	pushq	%rbp
	.cfi_def_cfa_offset 16
	.cfi_offset 6, -16
	movq	%rsp, %rbp
	.cfi_def_cfa_register 6
	subq	$8, %rsp
	.loc 6 26 17
	movq	$0, -128(%rbp)
.LBB24:
	.loc 6 27 5
	jmp	.L19
.L23:
.LBB25:
	.loc 6 28 37
	movq	-128(%rbp), %rax
	leaq	0(,%rax,4), %rdx
	.loc 6 28 33
	leaq	_ZN12_GLOBAL__N_12v1E(%rip), %rax
	addq	%rdx, %rax
	movq	%rax, -104(%rbp)
.LBB26:
.LBB27:
	.file 7 "/usr/lib/gcc/x86_64-linux-gnu/13/include/xmmintrin.h"
	.loc 7 940 23
	movq	-104(%rbp), %rax
	vmovups	(%rax), %xmm0
.LBE27:
.LBE26:
	.loc 6 28 33
	vmovaps	%xmm0, -96(%rbp)
	.loc 6 29 37
	movq	-128(%rbp), %rax
	leaq	0(,%rax,4), %rdx
	.loc 6 29 33
	leaq	_ZN12_GLOBAL__N_12v2E(%rip), %rax
	addq	%rdx, %rax
	movq	%rax, -112(%rbp)
.LBB28:
.LBB29:
	.loc 7 940 23
	movq	-112(%rbp), %rax
	vmovups	(%rax), %xmm0
.LBE29:
.LBE28:
	.loc 6 29 33
	vmovaps	%xmm0, -80(%rbp)
	vmovaps	-96(%rbp), %xmm0
	vmovaps	%xmm0, -32(%rbp)
	vmovaps	-80(%rbp), %xmm0
	vmovaps	%xmm0, -16(%rbp)
.LBB30:
.LBB31:
	.loc 7 192 45
	vmovaps	-32(%rbp), %xmm0
	vaddps	-16(%rbp), %xmm0, %xmm0
.LBE31:
.LBE30:
	.loc 6 30 31
	vmovaps	%xmm0, -64(%rbp)
	.loc 6 31 31
	movq	-128(%rbp), %rax
	leaq	0(,%rax,4), %rdx
	.loc 6 31 22
	leaq	_ZN12_GLOBAL__N_17out_sseE(%rip), %rax
	addq	%rdx, %rax
	movq	%rax, -120(%rbp)
	vmovaps	-64(%rbp), %xmm0
	vmovaps	%xmm0, -48(%rbp)
.LBB32:
.LBB33:
	.loc 7 989 20
	vmovaps	-48(%rbp), %xmm0
	movq	-120(%rbp), %rax
	vmovups	%xmm0, (%rax)
	.loc 7 990 1
	nop
.LBE33:
.LBE32:
.LBE25:
	.loc 6 27 30 discriminator 2
	addq	$4, -128(%rbp)
.L19:
	.loc 6 27 14 discriminator 1
	movq	-128(%rbp), %rax
	addq	$4, %rax
	.loc 6 27 18 discriminator 1
	cmpq	$1000000, %rax
	jbe	.L23
.LBE24:
	.loc 6 34 5
	jmp	.L24
.L25:
	.loc 6 35 26
	movq	-128(%rbp), %rax
	leaq	0(,%rax,4), %rdx
	leaq	_ZN12_GLOBAL__N_12v1E(%rip), %rax
	vmovss	(%rdx,%rax), %xmm1
	.loc 6 35 34
	movq	-128(%rbp), %rax
	leaq	0(,%rax,4), %rdx
	leaq	_ZN12_GLOBAL__N_12v2E(%rip), %rax
	vmovss	(%rdx,%rax), %xmm0
	.loc 6 35 28
	vaddss	%xmm0, %xmm1, %xmm0
	.loc 6 35 20
	movq	-128(%rbp), %rax
	leaq	0(,%rax,4), %rdx
	leaq	_ZN12_GLOBAL__N_17out_sseE(%rip), %rax
	vmovss	%xmm0, (%rdx,%rax)
	.loc 6 34 5 discriminator 2
	addq	$1, -128(%rbp)
.L24:
	.loc 6 34 14 discriminator 1
	cmpq	$999999, -128(%rbp)
	jbe	.L25
	.loc 6 37 1
	nop
	nop
	leave
	.cfi_def_cfa 7, 8
	ret
	.cfi_endproc
.LFE11774:
	.size	SseSum, .-SseSum
	.globl	AvxSum
	.type	AvxSum, @function
AvxSum:
.LFB11775:
	.loc 6 39 26
	.cfi_startproc
	endbr64
	pushq	%rbp
	.cfi_def_cfa_offset 16
	.cfi_offset 6, -16
	movq	%rsp, %rbp
	.cfi_def_cfa_register 6
	andq	$-32, %rsp
	subq	$104, %rsp
	.loc 6 40 17
	movq	$0, -120(%rsp)
.LBB34:
	.loc 6 41 5
	jmp	.L27
.L31:
.LBB35:
	.loc 6 42 40
	movq	-120(%rsp), %rax
	leaq	0(,%rax,4), %rdx
	.loc 6 42 36
	leaq	_ZN12_GLOBAL__N_12v1E(%rip), %rax
	addq	%rdx, %rax
	movq	%rax, -96(%rsp)
.LBB36:
.LBB37:
	.file 8 "/usr/lib/gcc/x86_64-linux-gnu/13/include/avxintrin.h"
	.loc 8 905 23
	movq	-96(%rsp), %rax
	vmovups	(%rax), %ymm0
.LBE37:
.LBE36:
	.loc 6 42 36
	vmovaps	%ymm0, -88(%rsp)
	.loc 6 43 40
	movq	-120(%rsp), %rax
	leaq	0(,%rax,4), %rdx
	.loc 6 43 36
	leaq	_ZN12_GLOBAL__N_12v2E(%rip), %rax
	addq	%rdx, %rax
	movq	%rax, -104(%rsp)
.LBB38:
.LBB39:
	.loc 8 905 23
	movq	-104(%rsp), %rax
	vmovups	(%rax), %ymm0
.LBE39:
.LBE38:
	.loc 6 43 36
	vmovaps	%ymm0, -56(%rsp)
	vmovaps	-88(%rsp), %ymm0
	vmovaps	%ymm0, 40(%rsp)
	vmovaps	-56(%rsp), %ymm0
	vmovaps	%ymm0, 72(%rsp)
.LBB40:
.LBB41:
	.loc 8 149 45
	vmovaps	40(%rsp), %ymm0
	vaddps	72(%rsp), %ymm0, %ymm0
.LBE41:
.LBE40:
	.loc 6 44 34
	vmovaps	%ymm0, -24(%rsp)
	.loc 6 45 34
	movq	-120(%rsp), %rax
	leaq	0(,%rax,4), %rdx
	.loc 6 45 25
	leaq	_ZN12_GLOBAL__N_17out_avxE(%rip), %rax
	addq	%rdx, %rax
	movq	%rax, -112(%rsp)
	vmovaps	-24(%rsp), %ymm0
	vmovaps	%ymm0, 8(%rsp)
.LBB42:
.LBB43:
	.loc 8 911 20
	vmovaps	8(%rsp), %ymm0
	movq	-112(%rsp), %rax
	vmovups	%ymm0, (%rax)
	.loc 8 912 1
	nop
.LBE43:
.LBE42:
.LBE35:
	.loc 6 41 30 discriminator 2
	addq	$8, -120(%rsp)
.L27:
	.loc 6 41 14 discriminator 1
	movq	-120(%rsp), %rax
	addq	$8, %rax
	.loc 6 41 18 discriminator 1
	cmpq	$1000000, %rax
	jbe	.L31
.LBE34:
	.loc 6 48 5
	jmp	.L32
.L33:
	.loc 6 49 26
	movq	-120(%rsp), %rax
	leaq	0(,%rax,4), %rdx
	leaq	_ZN12_GLOBAL__N_12v1E(%rip), %rax
	vmovss	(%rdx,%rax), %xmm1
	.loc 6 49 34
	movq	-120(%rsp), %rax
	leaq	0(,%rax,4), %rdx
	leaq	_ZN12_GLOBAL__N_12v2E(%rip), %rax
	vmovss	(%rdx,%rax), %xmm0
	.loc 6 49 28
	vaddss	%xmm0, %xmm1, %xmm0
	.loc 6 49 20
	movq	-120(%rsp), %rax
	leaq	0(,%rax,4), %rdx
	leaq	_ZN12_GLOBAL__N_17out_avxE(%rip), %rax
	vmovss	%xmm0, (%rdx,%rax)
	.loc 6 48 5 discriminator 2
	addq	$1, -120(%rsp)
.L32:
	.loc 6 48 14 discriminator 1
	cmpq	$999999, -120(%rsp)
	jbe	.L33
	.loc 6 51 1
	nop
	nop
	leave
	.cfi_def_cfa 7, 8
	ret
	.cfi_endproc
.LFE11775:
	.size	AvxSum, .-AvxSum
	.type	_ZN12_GLOBAL__N_17FillAllEv, @function
_ZN12_GLOBAL__N_17FillAllEv:
.LFB11777:
	.loc 6 62 16
	.cfi_startproc
	endbr64
	pushq	%rbp
	.cfi_def_cfa_offset 16
	.cfi_offset 6, -16
	movq	%rsp, %rbp
	.cfi_def_cfa_register 6
	.loc 6 63 15
	leaq	_ZN12_GLOBAL__N_12v1E(%rip), %rax
	movq	%rax, %rdi
	call	_ZN12_GLOBAL__N_110FillRandomIA1000000_fEEvRT_
	.loc 6 64 15
	leaq	_ZN12_GLOBAL__N_12v2E(%rip), %rax
	movq	%rax, %rdi
	call	_ZN12_GLOBAL__N_110FillRandomIA1000000_fEEvRT_
	.loc 6 65 1
	nop
	popq	%rbp
	.cfi_def_cfa 7, 8
	ret
	.cfi_endproc
.LFE11777:
	.size	_ZN12_GLOBAL__N_17FillAllEv, .-_ZN12_GLOBAL__N_17FillAllEv
	.section	.rodata
	.align 8
.LC3:
	.string	"void {anonymous}::AssertSame()"
	.align 8
.LC4:
	.string	"/home/pppptttt/Desktop/study/parallel-vk/hw1/main.cpp"
	.align 8
.LC5:
	.string	"std::abs(out_naive[i] - out_sse[i]) < 1e-6"
	.align 8
.LC6:
	.string	"std::abs(out_naive[i] - out_avx[i]) < 1e-6"
	.text
	.type	_ZN12_GLOBAL__N_110AssertSameEv, @function
_ZN12_GLOBAL__N_110AssertSameEv:
.LFB11778:
	.loc 6 67 19
	.cfi_startproc
	endbr64
	pushq	%rbp
	.cfi_def_cfa_offset 16
	.cfi_offset 6, -16
	movq	%rsp, %rbp
	.cfi_def_cfa_register 6
	subq	$16, %rsp
.LBB44:
	.loc 6 68 22
	movq	$0, -8(%rbp)
	.loc 6 68 5
	jmp	.L36
.L39:
	.loc 6 69 28
	movq	-8(%rbp), %rax
	leaq	0(,%rax,4), %rdx
	leaq	_ZN12_GLOBAL__N_19out_naiveE(%rip), %rax
	vmovss	(%rdx,%rax), %xmm0
	.loc 6 69 41
	movq	-8(%rbp), %rax
	leaq	0(,%rax,4), %rdx
	leaq	_ZN12_GLOBAL__N_17out_sseE(%rip), %rax
	vmovss	(%rdx,%rax), %xmm1
	.loc 6 69 16
	vsubss	%xmm1, %xmm0, %xmm2
	vmovd	%xmm2, %eax
	vmovd	%eax, %xmm0
	call	_ZSt3absf
	.loc 6 69 16 is_stmt 0 discriminator 1
	vcvtss2sd	%xmm0, %xmm0, %xmm1
	.loc 6 69 10 is_stmt 1 discriminator 1
	vmovsd	.LC2(%rip), %xmm0
	vcomisd	%xmm1, %xmm0
	ja	.L37
	.loc 6 69 37 discriminator 1
	leaq	.LC3(%rip), %rax
	movq	%rax, %rcx
	movl	$69, %edx
	leaq	.LC4(%rip), %rax
	movq	%rax, %rsi
	leaq	.LC5(%rip), %rax
	movq	%rax, %rdi
	call	__assert_fail@PLT
.L37:
	.loc 6 70 28
	movq	-8(%rbp), %rax
	leaq	0(,%rax,4), %rdx
	leaq	_ZN12_GLOBAL__N_19out_naiveE(%rip), %rax
	vmovss	(%rdx,%rax), %xmm0
	.loc 6 70 41
	movq	-8(%rbp), %rax
	leaq	0(,%rax,4), %rdx
	leaq	_ZN12_GLOBAL__N_17out_avxE(%rip), %rax
	vmovss	(%rdx,%rax), %xmm1
	.loc 6 70 16
	vsubss	%xmm1, %xmm0, %xmm3
	vmovd	%xmm3, %eax
	vmovd	%eax, %xmm0
	call	_ZSt3absf
	.loc 6 70 16 is_stmt 0 discriminator 1
	vcvtss2sd	%xmm0, %xmm0, %xmm1
	.loc 6 70 10 is_stmt 1 discriminator 1
	vmovsd	.LC2(%rip), %xmm0
	vcomisd	%xmm1, %xmm0
	ja	.L38
	.loc 6 70 37 discriminator 1
	leaq	.LC3(%rip), %rax
	movq	%rax, %rcx
	movl	$70, %edx
	leaq	.LC4(%rip), %rax
	movq	%rax, %rsi
	leaq	.LC6(%rip), %rax
	movq	%rax, %rdi
	call	__assert_fail@PLT
.L38:
	.loc 6 68 5 discriminator 2
	addq	$1, -8(%rbp)
.L36:
	.loc 6 68 31 discriminator 1
	cmpq	$999999, -8(%rbp)
	jbe	.L39
.LBE44:
	.loc 6 72 1
	nop
	nop
	leave
	.cfi_def_cfa 7, 8
	ret
	.cfi_endproc
.LFE11778:
	.size	_ZN12_GLOBAL__N_110AssertSameEv, .-_ZN12_GLOBAL__N_110AssertSameEv
	.section	.rodata
.LC7:
	.string	"Naive"
.LC8:
	.string	"SSE"
.LC9:
	.string	"AVX"
	.text
	.type	_ZN12_GLOBAL__N_16RunAllEv, @function
_ZN12_GLOBAL__N_16RunAllEv:
.LFB11781:
	.loc 6 89 15
	.cfi_startproc
	endbr64
	pushq	%rbp
	.cfi_def_cfa_offset 16
	.cfi_offset 6, -16
	movq	%rsp, %rbp
	.cfi_def_cfa_register 6
	subq	$32, %rsp
	.loc 6 89 15
	movq	%fs:40, %rax
	movq	%rax, -8(%rbp)
	xorl	%eax, %eax
	.loc 6 90 12
	call	_ZN12_GLOBAL__N_17FillAllEv
	.loc 6 91 14
	leaq	-32(%rbp), %rax
	leaq	.LC7(%rip), %rdx
	movq	%rdx, %rsi
	movq	%rax, %rdi
	call	_ZNSt17basic_string_viewIcSt11char_traitsIcEEC1EPKc
	.loc 6 91 14 is_stmt 0 discriminator 1
	movq	-32(%rbp), %rdx
	movq	-24(%rbp), %rax
	movq	%rdx, %rsi
	movq	%rax, %rdx
	leaq	NaiveSum(%rip), %rax
	movq	%rax, %rdi
	call	_ZN12_GLOBAL__N_19RunSingleIRFvvEEEvOT_St17basic_string_viewIcSt11char_traitsIcEE
	.loc 6 92 14 is_stmt 1
	leaq	-32(%rbp), %rax
	leaq	.LC8(%rip), %rdx
	movq	%rdx, %rsi
	movq	%rax, %rdi
	call	_ZNSt17basic_string_viewIcSt11char_traitsIcEEC1EPKc
	.loc 6 92 14 is_stmt 0 discriminator 1
	movq	-32(%rbp), %rdx
	movq	-24(%rbp), %rax
	movq	%rdx, %rsi
	movq	%rax, %rdx
	leaq	SseSum(%rip), %rax
	movq	%rax, %rdi
	call	_ZN12_GLOBAL__N_19RunSingleIRFvvEEEvOT_St17basic_string_viewIcSt11char_traitsIcEE
	.loc 6 93 14 is_stmt 1
	leaq	-32(%rbp), %rax
	leaq	.LC9(%rip), %rdx
	movq	%rdx, %rsi
	movq	%rax, %rdi
	call	_ZNSt17basic_string_viewIcSt11char_traitsIcEEC1EPKc
	.loc 6 93 14 is_stmt 0 discriminator 1
	movq	-32(%rbp), %rdx
	movq	-24(%rbp), %rax
	movq	%rdx, %rsi
	movq	%rax, %rdx
	leaq	AvxSum(%rip), %rax
	movq	%rax, %rdi
	call	_ZN12_GLOBAL__N_19RunSingleIRFvvEEEvOT_St17basic_string_viewIcSt11char_traitsIcEE
	.loc 6 94 15 is_stmt 1
	call	_ZN12_GLOBAL__N_110AssertSameEv
	.loc 6 95 1
	nop
	movq	-8(%rbp), %rax
	subq	%fs:40, %rax
	je	.L41
	call	__stack_chk_fail@PLT
.L41:
	leave
	.cfi_def_cfa 7, 8
	ret
	.cfi_endproc
.LFE11781:
	.size	_ZN12_GLOBAL__N_16RunAllEv, .-_ZN12_GLOBAL__N_16RunAllEv
	.globl	main
	.type	main, @function
main:
.LFB11782:
	.loc 6 99 12
	.cfi_startproc
	endbr64
	pushq	%rbp
	.cfi_def_cfa_offset 16
	.cfi_offset 6, -16
	movq	%rsp, %rbp
	.cfi_def_cfa_register 6
	.loc 6 100 11
	call	_ZN12_GLOBAL__N_16RunAllEv
	.loc 6 101 1
	movl	$0, %eax
	popq	%rbp
	.cfi_def_cfa 7, 8
	ret
	.cfi_endproc
.LFE11782:
	.size	main, .-main
	.section	.text._ZN9__gnu_cxx11char_traitsIcE6lengthEPKc,"axG",@progbits,_ZN9__gnu_cxx11char_traitsIcE6lengthEPKc,comdat
	.align 2
	.weak	_ZN9__gnu_cxx11char_traitsIcE6lengthEPKc
	.type	_ZN9__gnu_cxx11char_traitsIcE6lengthEPKc, @function
_ZN9__gnu_cxx11char_traitsIcE6lengthEPKc:
.LFB11808:
	.loc 4 199 5
	.cfi_startproc
	endbr64
	pushq	%rbp
	.cfi_def_cfa_offset 16
	.cfi_offset 6, -16
	movq	%rsp, %rbp
	.cfi_def_cfa_register 6
	subq	$48, %rsp
	movq	%rdi, -40(%rbp)
	.loc 4 199 5
	movq	%fs:40, %rax
	movq	%rax, -8(%rbp)
	xorl	%eax, %eax
	.loc 4 202 19
	movq	$0, -16(%rbp)
	.loc 4 203 7
	jmp	.L45
.L46:
	.loc 4 204 9
	addq	$1, -16(%rbp)
.L45:
	.loc 4 203 17
	movb	$0, -17(%rbp)
	.loc 4 203 21
	movq	-40(%rbp), %rdx
	movq	-16(%rbp), %rax
	addq	%rax, %rdx
	.loc 4 203 17
	leaq	-17(%rbp), %rax
	movq	%rax, %rsi
	movq	%rdx, %rdi
	call	_ZN9__gnu_cxx11char_traitsIcE2eqERKcS3_
	.loc 4 203 17 is_stmt 0 discriminator 1
	xorl	$1, %eax
	testb	%al, %al
	jne	.L46
	.loc 4 205 14 is_stmt 1
	movq	-16(%rbp), %rax
	.loc 4 206 5
	movq	-8(%rbp), %rdx
	subq	%fs:40, %rdx
	je	.L48
	call	__stack_chk_fail@PLT
.L48:
	leave
	.cfi_def_cfa 7, 8
	ret
	.cfi_endproc
.LFE11808:
	.size	_ZN9__gnu_cxx11char_traitsIcE6lengthEPKc, .-_ZN9__gnu_cxx11char_traitsIcE6lengthEPKc
	.section	.text._ZNKSt17basic_string_viewIcSt11char_traitsIcEE4dataEv,"axG",@progbits,_ZNKSt17basic_string_viewIcSt11char_traitsIcEE4dataEv,comdat
	.align 2
	.weak	_ZNKSt17basic_string_viewIcSt11char_traitsIcEE4dataEv
	.type	_ZNKSt17basic_string_viewIcSt11char_traitsIcEE4dataEv, @function
_ZNKSt17basic_string_viewIcSt11char_traitsIcEE4dataEv:
.LFB11841:
	.file 9 "/usr/include/c++/13/string_view"
	.loc 9 289 7
	.cfi_startproc
	endbr64
	pushq	%rbp
	.cfi_def_cfa_offset 16
	.cfi_offset 6, -16
	movq	%rsp, %rbp
	.cfi_def_cfa_register 6
	movq	%rdi, -8(%rbp)
	.loc 9 290 22
	movq	-8(%rbp), %rax
	movq	8(%rax), %rax
	.loc 9 290 30
	popq	%rbp
	.cfi_def_cfa 7, 8
	ret
	.cfi_endproc
.LFE11841:
	.size	_ZNKSt17basic_string_viewIcSt11char_traitsIcEE4dataEv, .-_ZNKSt17basic_string_viewIcSt11char_traitsIcEE4dataEv
	.section	.text._ZNKSt17basic_string_viewIcSt11char_traitsIcEE4sizeEv,"axG",@progbits,_ZNKSt17basic_string_viewIcSt11char_traitsIcEE4sizeEv,comdat
	.align 2
	.weak	_ZNKSt17basic_string_viewIcSt11char_traitsIcEE4sizeEv
	.type	_ZNKSt17basic_string_viewIcSt11char_traitsIcEE4sizeEv, @function
_ZNKSt17basic_string_viewIcSt11char_traitsIcEE4sizeEv:
.LFB12160:
	.loc 9 229 7
	.cfi_startproc
	endbr64
	pushq	%rbp
	.cfi_def_cfa_offset 16
	.cfi_offset 6, -16
	movq	%rsp, %rbp
	.cfi_def_cfa_register 6
	movq	%rdi, -8(%rbp)
	.loc 9 230 22
	movq	-8(%rbp), %rax
	movq	(%rax), %rax
	.loc 9 230 30
	popq	%rbp
	.cfi_def_cfa 7, 8
	ret
	.cfi_endproc
.LFE12160:
	.size	_ZNKSt17basic_string_viewIcSt11char_traitsIcEE4sizeEv, .-_ZNKSt17basic_string_viewIcSt11char_traitsIcEE4sizeEv
	.section	.text._ZNSt17basic_string_viewIcSt11char_traitsIcEEC2EPKc,"axG",@progbits,_ZNSt17basic_string_viewIcSt11char_traitsIcEEC5EPKc,comdat
	.align 2
	.weak	_ZNSt17basic_string_viewIcSt11char_traitsIcEEC2EPKc
	.type	_ZNSt17basic_string_viewIcSt11char_traitsIcEEC2EPKc, @function
_ZNSt17basic_string_viewIcSt11char_traitsIcEEC2EPKc:
.LFB12171:
	.loc 9 140 7
	.cfi_startproc
	.cfi_personality 0x9b,DW.ref.__gxx_personality_v0
	.cfi_lsda 0x1b,.LLSDA12171
	endbr64
	pushq	%rbp
	.cfi_def_cfa_offset 16
	.cfi_offset 6, -16
	movq	%rsp, %rbp
	.cfi_def_cfa_register 6
	subq	$16, %rsp
	movq	%rdi, -8(%rbp)
	movq	%rsi, -16(%rbp)
.LBB45:
	.loc 9 141 35
	movq	-16(%rbp), %rax
	movq	%rax, %rdi
	call	_ZNSt11char_traitsIcE6lengthEPKc
	.loc 9 141 9 discriminator 1
	movq	-8(%rbp), %rdx
	movq	%rax, (%rdx)
	.loc 9 142 2
	movq	-8(%rbp), %rax
	movq	-16(%rbp), %rdx
	movq	%rdx, 8(%rax)
.LBE45:
	.loc 9 143 9
	nop
	leave
	.cfi_def_cfa 7, 8
	ret
	.cfi_endproc
.LFE12171:
	.globl	__gxx_personality_v0
	.section	.gcc_except_table._ZNSt17basic_string_viewIcSt11char_traitsIcEEC2EPKc,"aG",@progbits,_ZNSt17basic_string_viewIcSt11char_traitsIcEEC5EPKc,comdat
.LLSDA12171:
	.byte	0xff
	.byte	0xff
	.byte	0x1
	.uleb128 .LLSDACSE12171-.LLSDACSB12171
.LLSDACSB12171:
.LLSDACSE12171:
	.section	.text._ZNSt17basic_string_viewIcSt11char_traitsIcEEC2EPKc,"axG",@progbits,_ZNSt17basic_string_viewIcSt11char_traitsIcEEC5EPKc,comdat
	.size	_ZNSt17basic_string_viewIcSt11char_traitsIcEEC2EPKc, .-_ZNSt17basic_string_viewIcSt11char_traitsIcEEC2EPKc
	.weak	_ZNSt17basic_string_viewIcSt11char_traitsIcEEC1EPKc
	.set	_ZNSt17basic_string_viewIcSt11char_traitsIcEEC1EPKc,_ZNSt17basic_string_viewIcSt11char_traitsIcEEC2EPKc
	.section	.text._ZSt3maxImERKT_S2_S2_,"axG",@progbits,_ZSt3maxImERKT_S2_S2_,comdat
	.weak	_ZSt3maxImERKT_S2_S2_
	.type	_ZSt3maxImERKT_S2_S2_, @function
_ZSt3maxImERKT_S2_S2_:
.LFB12260:
	.file 10 "/usr/include/c++/13/bits/stl_algobase.h"
	.loc 10 257 5
	.cfi_startproc
	endbr64
	pushq	%rbp
	.cfi_def_cfa_offset 16
	.cfi_offset 6, -16
	movq	%rsp, %rbp
	.cfi_def_cfa_register 6
	movq	%rdi, -8(%rbp)
	movq	%rsi, -16(%rbp)
	.loc 10 262 15
	movq	-8(%rbp), %rax
	movq	(%rax), %rdx
	movq	-16(%rbp), %rax
	movq	(%rax), %rax
	.loc 10 262 7
	cmpq	%rax, %rdx
	jnb	.L55
	.loc 10 263 9
	movq	-16(%rbp), %rax
	jmp	.L56
.L55:
	.loc 10 264 14
	movq	-8(%rbp), %rax
.L56:
	.loc 10 265 5
	popq	%rbp
	.cfi_def_cfa 7, 8
	ret
	.cfi_endproc
.LFE12260:
	.size	_ZSt3maxImERKT_S2_S2_, .-_ZSt3maxImERKT_S2_S2_
	.local	_ZZN12_GLOBAL__N_110FillRandomIA1000000_fEEvRT_E3gen
	.comm	_ZZN12_GLOBAL__N_110FillRandomIA1000000_fEEvRT_E3gen,8,8
	.local	_ZGVZN12_GLOBAL__N_110FillRandomIA1000000_fEEvRT_E3gen
	.comm	_ZGVZN12_GLOBAL__N_110FillRandomIA1000000_fEEvRT_E3gen,8,8
	.local	_ZZN12_GLOBAL__N_110FillRandomIA1000000_fEEvRT_E4dist
	.comm	_ZZN12_GLOBAL__N_110FillRandomIA1000000_fEEvRT_E4dist,8,8
	.local	_ZGVZN12_GLOBAL__N_110FillRandomIA1000000_fEEvRT_E4dist
	.comm	_ZGVZN12_GLOBAL__N_110FillRandomIA1000000_fEEvRT_E4dist,8,8
	.text
	.type	_ZN12_GLOBAL__N_110FillRandomIA1000000_fEEvRT_, @function
_ZN12_GLOBAL__N_110FillRandomIA1000000_fEEvRT_:
.LFB12337:
	.loc 6 53 6
	.cfi_startproc
	.cfi_personality 0x9b,DW.ref.__gxx_personality_v0
	.cfi_lsda 0x1b,.LLSDA12337
	endbr64
	pushq	%rbp
	.cfi_def_cfa_offset 16
	.cfi_offset 6, -16
	movq	%rsp, %rbp
	.cfi_def_cfa_register 6
	pushq	%r12
	pushq	%rbx
	subq	$48, %rsp
	.cfi_offset 12, -24
	.cfi_offset 3, -32
	movq	%rdi, -56(%rbp)
	.loc 6 54 39
	movzbl	_ZGVZN12_GLOBAL__N_110FillRandomIA1000000_fEEvRT_E3gen(%rip), %eax
	.loc 6 54 39 is_stmt 0 discriminator 1
	testb	%al, %al
	sete	%al
	testb	%al, %al
	je	.L58
	leaq	_ZGVZN12_GLOBAL__N_110FillRandomIA1000000_fEEvRT_E3gen(%rip), %rax
	movq	%rax, %rdi
	call	__cxa_guard_acquire@PLT
	testl	%eax, %eax
	setne	%al
	testb	%al, %al
	je	.L58
	.loc 6 54 39 discriminator 2
	movl	$0, %r12d
	leaq	_ZZN12_GLOBAL__N_110FillRandomIA1000000_fEEvRT_E3gen(%rip), %rax
	movq	%rax, %rdi
.LEHB0:
	call	_ZNSt26linear_congruential_engineImLm16807ELm0ELm2147483647EEC1Ev
.LEHE0:
	.loc 6 54 39 discriminator 4
	leaq	_ZGVZN12_GLOBAL__N_110FillRandomIA1000000_fEEvRT_E3gen(%rip), %rax
	movq	%rax, %rdi
	call	__cxa_guard_release@PLT
.L58:
	.loc 6 55 43 is_stmt 1
	movzbl	_ZGVZN12_GLOBAL__N_110FillRandomIA1000000_fEEvRT_E4dist(%rip), %eax
	.loc 6 55 43 is_stmt 0 discriminator 1
	testb	%al, %al
	sete	%al
	testb	%al, %al
	je	.L59
	leaq	_ZGVZN12_GLOBAL__N_110FillRandomIA1000000_fEEvRT_E4dist(%rip), %rax
	movq	%rax, %rdi
	call	__cxa_guard_acquire@PLT
	testl	%eax, %eax
	setne	%al
	testb	%al, %al
	je	.L59
	.loc 6 55 43 discriminator 2
	movl	$0, %r12d
	vmovss	.LC10(%rip), %xmm1
	movl	.LC11(%rip), %eax
	vmovd	%eax, %xmm0
	leaq	_ZZN12_GLOBAL__N_110FillRandomIA1000000_fEEvRT_E4dist(%rip), %rax
	movq	%rax, %rdi
.LEHB1:
	call	_ZNSt25uniform_real_distributionIfEC1Eff
.LEHE1:
	.loc 6 55 43 discriminator 4
	leaq	_ZGVZN12_GLOBAL__N_110FillRandomIA1000000_fEEvRT_E4dist(%rip), %rax
	movq	%rax, %rdi
	call	__cxa_guard_release@PLT
.L59:
.LBB46:
	.loc 6 57 5 is_stmt 1
	movq	-56(%rbp), %rax
	movq	%rax, -40(%rbp)
	movq	-40(%rbp), %rax
	movq	%rax, -48(%rbp)
	movq	-40(%rbp), %rax
	addq	$4000000, %rax
	movq	%rax, -32(%rbp)
	jmp	.L60
.L61:
	.loc 6 57 16 discriminator 3
	movq	-48(%rbp), %rax
	movq	%rax, -24(%rbp)
	.loc 6 58 18
	leaq	_ZZN12_GLOBAL__N_110FillRandomIA1000000_fEEvRT_E3gen(%rip), %rax
	movq	%rax, %rsi
	leaq	_ZZN12_GLOBAL__N_110FillRandomIA1000000_fEEvRT_E4dist(%rip), %rax
	movq	%rax, %rdi
.LEHB2:
	call	_ZNSt25uniform_real_distributionIfEclISt26linear_congruential_engineImLm16807ELm0ELm2147483647EEEEfRT_
	vmovd	%xmm0, %eax
	.loc 6 58 12 discriminator 1
	movq	-24(%rbp), %rdx
	movl	%eax, (%rdx)
	.loc 6 57 5 discriminator 3
	addq	$4, -48(%rbp)
.L60:
	.loc 6 57 5 is_stmt 0 discriminator 1
	movq	-48(%rbp), %rax
	cmpq	-32(%rbp), %rax
	jne	.L61
.LBE46:
	.loc 6 60 1 is_stmt 1
	jmp	.L68
.L66:
	endbr64
	.loc 6 54 39 discriminator 3
	movq	%rax, %rbx
	testb	%r12b, %r12b
	jne	.L63
	.loc 6 54 39 is_stmt 0 discriminator 5
	leaq	_ZGVZN12_GLOBAL__N_110FillRandomIA1000000_fEEvRT_E3gen(%rip), %rax
	movq	%rax, %rdi
	call	__cxa_guard_abort@PLT
.L63:
	movq	%rbx, %rax
	movq	%rax, %rdi
	call	_Unwind_Resume@PLT
.L67:
	endbr64
	.loc 6 55 43 is_stmt 1 discriminator 3
	movq	%rax, %rbx
	testb	%r12b, %r12b
	jne	.L65
	.loc 6 55 43 is_stmt 0 discriminator 5
	leaq	_ZGVZN12_GLOBAL__N_110FillRandomIA1000000_fEEvRT_E4dist(%rip), %rax
	movq	%rax, %rdi
	call	__cxa_guard_abort@PLT
.L65:
	movq	%rbx, %rax
	movq	%rax, %rdi
	call	_Unwind_Resume@PLT
.LEHE2:
.L68:
	.loc 6 60 1 is_stmt 1
	addq	$48, %rsp
	popq	%rbx
	popq	%r12
	popq	%rbp
	.cfi_def_cfa 7, 8
	ret
	.cfi_endproc
.LFE12337:
	.section	.gcc_except_table,"a",@progbits
.LLSDA12337:
	.byte	0xff
	.byte	0xff
	.byte	0x1
	.uleb128 .LLSDACSE12337-.LLSDACSB12337
.LLSDACSB12337:
	.uleb128 .LEHB0-.LFB12337
	.uleb128 .LEHE0-.LEHB0
	.uleb128 .L66-.LFB12337
	.uleb128 0
	.uleb128 .LEHB1-.LFB12337
	.uleb128 .LEHE1-.LEHB1
	.uleb128 .L67-.LFB12337
	.uleb128 0
	.uleb128 .LEHB2-.LFB12337
	.uleb128 .LEHE2-.LEHB2
	.uleb128 0
	.uleb128 0
.LLSDACSE12337:
	.text
	.size	_ZN12_GLOBAL__N_110FillRandomIA1000000_fEEvRT_, .-_ZN12_GLOBAL__N_110FillRandomIA1000000_fEEvRT_
	.section	.rodata
.LC12:
	.string	":\t"
.LC13:
	.string	"ns\n"
	.text
	.type	_ZN12_GLOBAL__N_19RunSingleIRFvvEEEvOT_St17basic_string_viewIcSt11char_traitsIcEE, @function
_ZN12_GLOBAL__N_19RunSingleIRFvvEEEvOT_St17basic_string_viewIcSt11char_traitsIcEE:
.LFB12338:
	.loc 6 84 6
	.cfi_startproc
	endbr64
	pushq	%rbp
	.cfi_def_cfa_offset 16
	.cfi_offset 6, -16
	movq	%rsp, %rbp
	.cfi_def_cfa_register 6
	subq	$48, %rsp
	movq	%rdi, -24(%rbp)
	movq	%rdx, %rcx
	movq	%rsi, %rax
	movq	%rdi, %rdx
	movq	%rcx, %rdx
	movq	%rax, -48(%rbp)
	movq	%rdx, -40(%rbp)
	.loc 6 85 44
	movq	-24(%rbp), %rax
	movq	%rax, %rdi
	call	_ZSt7forwardIRFvvEEOT_RNSt16remove_referenceIS2_E4typeE
	.loc 6 85 44 is_stmt 0 discriminator 1
	movq	%rax, %rdi
	call	_ZN12_GLOBAL__N_111TimedInvokeIJRFvvEEEEmDpOT_
	.loc 6 85 44 discriminator 2
	movq	%rax, -8(%rbp)
	.loc 6 86 30 is_stmt 1
	movq	-48(%rbp), %rdx
	movq	-40(%rbp), %rax
	movq	%rdx, %rsi
	movq	%rax, %rdx
	leaq	_ZSt4cout(%rip), %rax
	movq	%rax, %rdi
	call	_ZStlsIcSt11char_traitsIcEERSt13basic_ostreamIT_T0_ES6_St17basic_string_viewIS3_S4_E
	movq	%rax, %rdx
	.loc 6 86 30 is_stmt 0 discriminator 1
	leaq	.LC12(%rip), %rax
	movq	%rax, %rsi
	movq	%rdx, %rdi
	call	_ZStlsISt11char_traitsIcEERSt13basic_ostreamIcT_ES5_PKc@PLT
	movq	%rax, %rdx
	.loc 6 86 39 is_stmt 1 discriminator 2
	movq	-8(%rbp), %rax
	movq	%rax, %rsi
	movq	%rdx, %rdi
	call	_ZNSolsEm@PLT
	movq	%rax, %rdx
	.loc 6 86 50 discriminator 3
	leaq	.LC13(%rip), %rax
	movq	%rax, %rsi
	movq	%rdx, %rdi
	call	_ZStlsISt11char_traitsIcEERSt13basic_ostreamIcT_ES5_PKc@PLT
	.loc 6 87 1
	nop
	leave
	.cfi_def_cfa 7, 8
	ret
	.cfi_endproc
.LFE12338:
	.size	_ZN12_GLOBAL__N_19RunSingleIRFvvEEEvOT_St17basic_string_viewIcSt11char_traitsIcEE, .-_ZN12_GLOBAL__N_19RunSingleIRFvvEEEvOT_St17basic_string_viewIcSt11char_traitsIcEE
	.section	.text._ZN9__gnu_cxx11char_traitsIcE2eqERKcS3_,"axG",@progbits,_ZN9__gnu_cxx11char_traitsIcE2eqERKcS3_,comdat
	.weak	_ZN9__gnu_cxx11char_traitsIcE2eqERKcS3_
	.type	_ZN9__gnu_cxx11char_traitsIcE2eqERKcS3_, @function
_ZN9__gnu_cxx11char_traitsIcE2eqERKcS3_:
.LFB12350:
	.loc 4 136 7
	.cfi_startproc
	endbr64
	pushq	%rbp
	.cfi_def_cfa_offset 16
	.cfi_offset 6, -16
	movq	%rsp, %rbp
	.cfi_def_cfa_register 6
	movq	%rdi, -8(%rbp)
	movq	%rsi, -16(%rbp)
	.loc 4 137 21
	movq	-8(%rbp), %rax
	movzbl	(%rax), %edx
	movq	-16(%rbp), %rax
	movzbl	(%rax), %eax
	.loc 4 137 24
	cmpb	%al, %dl
	sete	%al
	.loc 4 137 30
	popq	%rbp
	.cfi_def_cfa 7, 8
	ret
	.cfi_endproc
.LFE12350:
	.size	_ZN9__gnu_cxx11char_traitsIcE2eqERKcS3_, .-_ZN9__gnu_cxx11char_traitsIcE2eqERKcS3_
	.section	.text._ZNSt26linear_congruential_engineImLm16807ELm0ELm2147483647EEC2Ev,"axG",@progbits,_ZNSt26linear_congruential_engineImLm16807ELm0ELm2147483647EEC5Ev,comdat
	.align 2
	.weak	_ZNSt26linear_congruential_engineImLm16807ELm0ELm2147483647EEC2Ev
	.type	_ZNSt26linear_congruential_engineImLm16807ELm0ELm2147483647EEC2Ev, @function
_ZNSt26linear_congruential_engineImLm16807ELm0ELm2147483647EEC2Ev:
.LFB12653:
	.file 11 "/usr/include/c++/13/bits/random.h"
	.loc 11 292 7
	.cfi_startproc
	endbr64
	pushq	%rbp
	.cfi_def_cfa_offset 16
	.cfi_offset 6, -16
	movq	%rsp, %rbp
	.cfi_def_cfa_register 6
	subq	$16, %rsp
	movq	%rdi, -8(%rbp)
.LBB47:
	.loc 11 292 77
	movq	-8(%rbp), %rax
	movl	$1, %esi
	movq	%rax, %rdi
	call	_ZNSt26linear_congruential_engineImLm16807ELm0ELm2147483647EEC1Em
.LBE47:
	.loc 11 293 9
	nop
	leave
	.cfi_def_cfa 7, 8
	ret
	.cfi_endproc
.LFE12653:
	.size	_ZNSt26linear_congruential_engineImLm16807ELm0ELm2147483647EEC2Ev, .-_ZNSt26linear_congruential_engineImLm16807ELm0ELm2147483647EEC2Ev
	.weak	_ZNSt26linear_congruential_engineImLm16807ELm0ELm2147483647EEC1Ev
	.set	_ZNSt26linear_congruential_engineImLm16807ELm0ELm2147483647EEC1Ev,_ZNSt26linear_congruential_engineImLm16807ELm0ELm2147483647EEC2Ev
	.section	.text._ZNSt25uniform_real_distributionIfEC2Eff,"axG",@progbits,_ZNSt25uniform_real_distributionIfEC5Eff,comdat
	.align 2
	.weak	_ZNSt25uniform_real_distributionIfEC2Eff
	.type	_ZNSt25uniform_real_distributionIfEC2Eff, @function
_ZNSt25uniform_real_distributionIfEC2Eff:
.LFB12656:
	.loc 11 1840 7
	.cfi_startproc
	endbr64
	pushq	%rbp
	.cfi_def_cfa_offset 16
	.cfi_offset 6, -16
	movq	%rsp, %rbp
	.cfi_def_cfa_register 6
	subq	$16, %rsp
	movq	%rdi, -8(%rbp)
	vmovss	%xmm0, -12(%rbp)
	vmovss	%xmm1, -16(%rbp)
.LBB48:
	.loc 11 1841 9
	movq	-8(%rbp), %rax
	vmovss	-16(%rbp), %xmm0
	movl	-12(%rbp), %edx
	vmovaps	%xmm0, %xmm1
	vmovd	%edx, %xmm0
	movq	%rax, %rdi
	call	_ZNSt25uniform_real_distributionIfE10param_typeC1Eff
.LBE48:
	.loc 11 1842 9
	nop
	leave
	.cfi_def_cfa 7, 8
	ret
	.cfi_endproc
.LFE12656:
	.size	_ZNSt25uniform_real_distributionIfEC2Eff, .-_ZNSt25uniform_real_distributionIfEC2Eff
	.weak	_ZNSt25uniform_real_distributionIfEC1Eff
	.set	_ZNSt25uniform_real_distributionIfEC1Eff,_ZNSt25uniform_real_distributionIfEC2Eff
	.section	.text._ZNSt25uniform_real_distributionIfEclISt26linear_congruential_engineImLm16807ELm0ELm2147483647EEEEfRT_,"axG",@progbits,_ZNSt25uniform_real_distributionIfEclISt26linear_congruential_engineImLm16807ELm0ELm2147483647EEEEfRT_,comdat
	.align 2
	.weak	_ZNSt25uniform_real_distributionIfEclISt26linear_congruential_engineImLm16807ELm0ELm2147483647EEEEfRT_
	.type	_ZNSt25uniform_real_distributionIfEclISt26linear_congruential_engineImLm16807ELm0ELm2147483647EEEEfRT_, @function
_ZNSt25uniform_real_distributionIfEclISt26linear_congruential_engineImLm16807ELm0ELm2147483647EEEEfRT_:
.LFB12658:
	.loc 11 1899 2
	.cfi_startproc
	endbr64
	pushq	%rbp
	.cfi_def_cfa_offset 16
	.cfi_offset 6, -16
	movq	%rsp, %rbp
	.cfi_def_cfa_register 6
	subq	$16, %rsp
	movq	%rdi, -8(%rbp)
	movq	%rsi, -16(%rbp)
	.loc 11 1900 43
	movq	-8(%rbp), %rdx
	.loc 11 1900 34
	movq	-16(%rbp), %rcx
	movq	-8(%rbp), %rax
	movq	%rcx, %rsi
	movq	%rax, %rdi
	call	_ZNSt25uniform_real_distributionIfEclISt26linear_congruential_engineImLm16807ELm0ELm2147483647EEEEfRT_RKNS0_10param_typeE
	.loc 11 1900 54
	leave
	.cfi_def_cfa 7, 8
	ret
	.cfi_endproc
.LFE12658:
	.size	_ZNSt25uniform_real_distributionIfEclISt26linear_congruential_engineImLm16807ELm0ELm2147483647EEEEfRT_, .-_ZNSt25uniform_real_distributionIfEclISt26linear_congruential_engineImLm16807ELm0ELm2147483647EEEEfRT_
	.section	.text._ZSt7forwardIRFvvEEOT_RNSt16remove_referenceIS2_E4typeE,"axG",@progbits,_ZSt7forwardIRFvvEEOT_RNSt16remove_referenceIS2_E4typeE,comdat
	.weak	_ZSt7forwardIRFvvEEOT_RNSt16remove_referenceIS2_E4typeE
	.type	_ZSt7forwardIRFvvEEOT_RNSt16remove_referenceIS2_E4typeE, @function
_ZSt7forwardIRFvvEEOT_RNSt16remove_referenceIS2_E4typeE:
.LFB12659:
	.file 12 "/usr/include/c++/13/bits/move.h"
	.loc 12 70 5
	.cfi_startproc
	endbr64
	pushq	%rbp
	.cfi_def_cfa_offset 16
	.cfi_offset 6, -16
	movq	%rsp, %rbp
	.cfi_def_cfa_register 6
	movq	%rdi, -8(%rbp)
	.loc 12 71 36
	movq	-8(%rbp), %rax
	.loc 12 71 39
	popq	%rbp
	.cfi_def_cfa 7, 8
	ret
	.cfi_endproc
.LFE12659:
	.size	_ZSt7forwardIRFvvEEOT_RNSt16remove_referenceIS2_E4typeE, .-_ZSt7forwardIRFvvEEOT_RNSt16remove_referenceIS2_E4typeE
	.section	.text._ZNSt6chronomiINS_3_V212steady_clockENS_8durationIlSt5ratioILl1ELl1000000000EEEES6_EENSt11common_typeIJT0_T1_EE4typeERKNS_10time_pointIT_S8_EERKNSC_ISD_S9_EE,"axG",@progbits,_ZNSt6chronomiINS_3_V212steady_clockENS_8durationIlSt5ratioILl1ELl1000000000EEEES6_EENSt11common_typeIJT0_T1_EE4typeERKNS_10time_pointIT_S8_EERKNSC_ISD_S9_EE,comdat
	.weak	_ZNSt6chronomiINS_3_V212steady_clockENS_8durationIlSt5ratioILl1ELl1000000000EEEES6_EENSt11common_typeIJT0_T1_EE4typeERKNS_10time_pointIT_S8_EERKNSC_ISD_S9_EE
	.type	_ZNSt6chronomiINS_3_V212steady_clockENS_8durationIlSt5ratioILl1ELl1000000000EEEES6_EENSt11common_typeIJT0_T1_EE4typeERKNS_10time_pointIT_S8_EERKNSC_ISD_S9_EE, @function
_ZNSt6chronomiINS_3_V212steady_clockENS_8durationIlSt5ratioILl1ELl1000000000EEEES6_EENSt11common_typeIJT0_T1_EE4typeERKNS_10time_pointIT_S8_EERKNSC_ISD_S9_EE:
.LFB12663:
	.loc 3 1141 7
	.cfi_startproc
	endbr64
	pushq	%rbp
	.cfi_def_cfa_offset 16
	.cfi_offset 6, -16
	movq	%rsp, %rbp
	.cfi_def_cfa_register 6
	subq	$48, %rsp
	movq	%rdi, -40(%rbp)
	movq	%rsi, -48(%rbp)
	.loc 3 1141 7
	movq	%fs:40, %rax
	movq	%rax, -8(%rbp)
	xorl	%eax, %eax
	.loc 3 1143 65
	movq	-48(%rbp), %rax
	movq	%rax, %rdi
	call	_ZNKSt6chrono10time_pointINS_3_V212steady_clockENS_8durationIlSt5ratioILl1ELl1000000000EEEEE16time_since_epochEv
	movq	%rax, -16(%rbp)
	.loc 3 1143 38 discriminator 1
	movq	-40(%rbp), %rax
	movq	%rax, %rdi
	call	_ZNKSt6chrono10time_pointINS_3_V212steady_clockENS_8durationIlSt5ratioILl1ELl1000000000EEEEE16time_since_epochEv
	movq	%rax, -24(%rbp)
	.loc 3 1143 41 discriminator 2
	leaq	-16(%rbp), %rdx
	leaq	-24(%rbp), %rax
	movq	%rdx, %rsi
	movq	%rax, %rdi
	call	_ZNSt6chronomiIlSt5ratioILl1ELl1000000000EElS2_EENSt11common_typeIJNS_8durationIT_T0_EENS4_IT1_T2_EEEE4typeERKS7_RKSA_
	.loc 3 1143 69
	movq	-8(%rbp), %rdx
	subq	%fs:40, %rdx
	je	.L80
	call	__stack_chk_fail@PLT
.L80:
	leave
	.cfi_def_cfa 7, 8
	ret
	.cfi_endproc
.LFE12663:
	.size	_ZNSt6chronomiINS_3_V212steady_clockENS_8durationIlSt5ratioILl1ELl1000000000EEEES6_EENSt11common_typeIJT0_T1_EE4typeERKNS_10time_pointIT_S8_EERKNSC_ISD_S9_EE, .-_ZNSt6chronomiINS_3_V212steady_clockENS_8durationIlSt5ratioILl1ELl1000000000EEEES6_EENSt11common_typeIJT0_T1_EE4typeERKNS_10time_pointIT_S8_EERKNSC_ISD_S9_EE
	.section	.text._ZNKSt6chrono10time_pointINS_3_V212steady_clockENS_8durationIlSt5ratioILl1ELl1000000000EEEEE16time_since_epochEv,"axG",@progbits,_ZNKSt6chrono10time_pointINS_3_V212steady_clockENS_8durationIlSt5ratioILl1ELl1000000000EEEEE16time_since_epochEv,comdat
	.align 2
	.weak	_ZNKSt6chrono10time_pointINS_3_V212steady_clockENS_8durationIlSt5ratioILl1ELl1000000000EEEEE16time_since_epochEv
	.type	_ZNKSt6chrono10time_pointINS_3_V212steady_clockENS_8durationIlSt5ratioILl1ELl1000000000EEEEE16time_since_epochEv, @function
_ZNKSt6chrono10time_pointINS_3_V212steady_clockENS_8durationIlSt5ratioILl1ELl1000000000EEEEE16time_since_epochEv:
.LFB12664:
	.loc 3 949 2
	.cfi_startproc
	endbr64
	pushq	%rbp
	.cfi_def_cfa_offset 16
	.cfi_offset 6, -16
	movq	%rsp, %rbp
	.cfi_def_cfa_register 6
	movq	%rdi, -8(%rbp)
	.loc 3 950 11
	movq	-8(%rbp), %rax
	movq	(%rax), %rax
	.loc 3 950 16
	popq	%rbp
	.cfi_def_cfa 7, 8
	ret
	.cfi_endproc
.LFE12664:
	.size	_ZNKSt6chrono10time_pointINS_3_V212steady_clockENS_8durationIlSt5ratioILl1ELl1000000000EEEEE16time_since_epochEv, .-_ZNKSt6chrono10time_pointINS_3_V212steady_clockENS_8durationIlSt5ratioILl1ELl1000000000EEEEE16time_since_epochEv
	.text
	.type	_ZN12_GLOBAL__N_111TimedInvokeIJRFvvEEEEmDpOT_, @function
_ZN12_GLOBAL__N_111TimedInvokeIJRFvvEEEEmDpOT_:
.LFB12660:
	.loc 6 75 13
	.cfi_startproc
	endbr64
	pushq	%rbp
	.cfi_def_cfa_offset 16
	.cfi_offset 6, -16
	movq	%rsp, %rbp
	.cfi_def_cfa_register 6
	subq	$64, %rsp
	movq	%rdi, -56(%rbp)
	.loc 6 75 13
	movq	%fs:40, %rax
	movq	%rax, -8(%rbp)
	xorl	%eax, %eax
	.loc 6 76 54
	call	_ZNSt6chrono3_V212steady_clock3nowEv@PLT
	movq	%rax, -40(%rbp)
	.loc 6 77 16
	movq	-56(%rbp), %rax
	movq	%rax, %rdi
	call	_ZSt7forwardIRFvvEEOT_RNSt16remove_referenceIS2_E4typeE
	.loc 6 77 16 is_stmt 0 discriminator 1
	movq	%rax, %rdi
	call	_ZSt6invokeIRFvvEJEENSt13invoke_resultIT_JDpT0_EE4typeEOS3_DpOS4_
	.loc 6 78 52 is_stmt 1
	call	_ZNSt6chrono3_V212steady_clock3nowEv@PLT
	movq	%rax, -32(%rbp)
	.loc 6 79 69
	leaq	-40(%rbp), %rdx
	leaq	-32(%rbp), %rax
	movq	%rdx, %rsi
	movq	%rax, %rdi
	call	_ZNSt6chronomiINS_3_V212steady_clockENS_8durationIlSt5ratioILl1ELl1000000000EEEES6_EENSt11common_typeIJT0_T1_EE4typeERKNS_10time_pointIT_S8_EERKNSC_ISD_S9_EE
	movq	%rax, -24(%rbp)
	.loc 6 79 64 discriminator 2
	leaq	-24(%rbp), %rax
	movq	%rax, %rdi
	call	_ZNSt6chrono13duration_castINS_8durationIlSt5ratioILl1ELl1000000000EEEElS3_EENSt9enable_ifIXsrNS_13__is_durationIT_EE5valueES7_E4typeERKNS1_IT0_T1_EE
	movq	%rax, -16(%rbp)
	.loc 6 80 15
	leaq	-16(%rbp), %rax
	movq	%rax, %rdi
	call	_ZNKSt6chrono8durationIlSt5ratioILl1ELl1000000000EEE5countEv
	.loc 6 81 1
	movq	-8(%rbp), %rdx
	subq	%fs:40, %rdx
	je	.L85
	call	__stack_chk_fail@PLT
.L85:
	leave
	.cfi_def_cfa 7, 8
	ret
	.cfi_endproc
.LFE12660:
	.size	_ZN12_GLOBAL__N_111TimedInvokeIJRFvvEEEEmDpOT_, .-_ZN12_GLOBAL__N_111TimedInvokeIJRFvvEEEEmDpOT_
	.section	.text._ZStlsIcSt11char_traitsIcEERSt13basic_ostreamIT_T0_ES6_St17basic_string_viewIS3_S4_E,"axG",@progbits,_ZStlsIcSt11char_traitsIcEERSt13basic_ostreamIT_T0_ES6_St17basic_string_viewIS3_S4_E,comdat
	.weak	_ZStlsIcSt11char_traitsIcEERSt13basic_ostreamIT_T0_ES6_St17basic_string_viewIS3_S4_E
	.type	_ZStlsIcSt11char_traitsIcEERSt13basic_ostreamIT_T0_ES6_St17basic_string_viewIS3_S4_E, @function
_ZStlsIcSt11char_traitsIcEERSt13basic_ostreamIT_T0_ES6_St17basic_string_viewIS3_S4_E:
.LFB12666:
	.loc 9 761 5
	.cfi_startproc
	endbr64
	pushq	%rbp
	.cfi_def_cfa_offset 16
	.cfi_offset 6, -16
	movq	%rsp, %rbp
	.cfi_def_cfa_register 6
	pushq	%rbx
	subq	$40, %rsp
	.cfi_offset 3, -24
	movq	%rdi, -24(%rbp)
	movq	%rdx, %rcx
	movq	%rsi, %rax
	movq	%rdi, %rdx
	movq	%rcx, %rdx
	movq	%rax, -48(%rbp)
	movq	%rdx, -40(%rbp)
	.loc 9 763 61
	leaq	-48(%rbp), %rax
	movq	%rax, %rdi
	call	_ZNKSt17basic_string_viewIcSt11char_traitsIcEE4sizeEv
	.loc 9 763 30 discriminator 1
	movq	%rax, %rbx
	leaq	-48(%rbp), %rax
	movq	%rax, %rdi
	call	_ZNKSt17basic_string_viewIcSt11char_traitsIcEE4dataEv
	movq	%rax, %rcx
	.loc 9 763 30 is_stmt 0 discriminator 2
	movq	-24(%rbp), %rax
	movq	%rbx, %rdx
	movq	%rcx, %rsi
	movq	%rax, %rdi
	call	_ZSt16__ostream_insertIcSt11char_traitsIcEERSt13basic_ostreamIT_T0_ES6_PKS3_l@PLT
	.loc 9 763 66 is_stmt 1
	movq	-8(%rbp), %rbx
	leave
	.cfi_def_cfa 7, 8
	ret
	.cfi_endproc
.LFE12666:
	.size	_ZStlsIcSt11char_traitsIcEERSt13basic_ostreamIT_T0_ES6_St17basic_string_viewIS3_S4_E, .-_ZStlsIcSt11char_traitsIcEERSt13basic_ostreamIT_T0_ES6_St17basic_string_viewIS3_S4_E
	.section	.text._ZNSt26linear_congruential_engineImLm16807ELm0ELm2147483647EEC2Em,"axG",@progbits,_ZNSt26linear_congruential_engineImLm16807ELm0ELm2147483647EEC5Em,comdat
	.align 2
	.weak	_ZNSt26linear_congruential_engineImLm16807ELm0ELm2147483647EEC2Em
	.type	_ZNSt26linear_congruential_engineImLm16807ELm0ELm2147483647EEC2Em, @function
_ZNSt26linear_congruential_engineImLm16807ELm0ELm2147483647EEC2Em:
.LFB12889:
	.loc 11 303 7
	.cfi_startproc
	endbr64
	pushq	%rbp
	.cfi_def_cfa_offset 16
	.cfi_offset 6, -16
	movq	%rsp, %rbp
	.cfi_def_cfa_register 6
	subq	$16, %rsp
	movq	%rdi, -8(%rbp)
	movq	%rsi, -16(%rbp)
.LBB49:
	.loc 11 304 13
	movq	-16(%rbp), %rdx
	movq	-8(%rbp), %rax
	movq	%rdx, %rsi
	movq	%rax, %rdi
	call	_ZNSt26linear_congruential_engineImLm16807ELm0ELm2147483647EE4seedEm
.LBE49:
	.loc 11 304 20
	nop
	leave
	.cfi_def_cfa 7, 8
	ret
	.cfi_endproc
.LFE12889:
	.size	_ZNSt26linear_congruential_engineImLm16807ELm0ELm2147483647EEC2Em, .-_ZNSt26linear_congruential_engineImLm16807ELm0ELm2147483647EEC2Em
	.weak	_ZNSt26linear_congruential_engineImLm16807ELm0ELm2147483647EEC1Em
	.set	_ZNSt26linear_congruential_engineImLm16807ELm0ELm2147483647EEC1Em,_ZNSt26linear_congruential_engineImLm16807ELm0ELm2147483647EEC2Em
	.section	.text._ZNSt25uniform_real_distributionIfE10param_typeC2Eff,"axG",@progbits,_ZNSt25uniform_real_distributionIfE10param_typeC5Eff,comdat
	.align 2
	.weak	_ZNSt25uniform_real_distributionIfE10param_typeC2Eff
	.type	_ZNSt25uniform_real_distributionIfE10param_typeC2Eff, @function
_ZNSt25uniform_real_distributionIfE10param_typeC2Eff:
.LFB12892:
	.loc 11 1796 2
	.cfi_startproc
	endbr64
	pushq	%rbp
	.cfi_def_cfa_offset 16
	.cfi_offset 6, -16
	movq	%rsp, %rbp
	.cfi_def_cfa_register 6
	subq	$16, %rsp
	movq	%rdi, -8(%rbp)
	vmovss	%xmm0, -12(%rbp)
	vmovss	%xmm1, -16(%rbp)
.LBB50:
	.loc 11 1797 4
	movq	-8(%rbp), %rax
	vmovss	-12(%rbp), %xmm0
	vmovss	%xmm0, (%rax)
	.loc 11 1797 15
	movq	-8(%rbp), %rax
	vmovss	-16(%rbp), %xmm0
	vmovss	%xmm0, 4(%rax)
	.loc 11 1799 41
	call	_ZSt23__is_constant_evaluatedv
	.loc 11 1799 44 discriminator 1
	testb	%al, %al
	je	.L90
	.loc 11 1799 53 discriminator 1
	movq	-8(%rbp), %rax
	vmovss	(%rax), %xmm1
	.loc 11 1799 61 discriminator 1
	movq	-8(%rbp), %rax
	vmovss	4(%rax), %xmm0
	.loc 11 1799 58 discriminator 1
	vcomiss	%xmm1, %xmm0
	setnb	%al
	.loc 11 1799 48 discriminator 1
	xorl	$1, %eax
	.loc 11 1799 44 discriminator 1
	testb	%al, %al
	je	.L90
	.loc 11 1799 44 is_stmt 0 discriminator 3
	movl	$1, %eax
	.loc 11 1799 44
	jmp	.L91
.L90:
	.loc 11 1799 44 discriminator 4
	movl	$0, %eax
.L91:
	.loc 11 1799 9 is_stmt 1 discriminator 6
	testb	%al, %al
.LBE50:
	.loc 11 1800 2
	nop
	leave
	.cfi_def_cfa 7, 8
	ret
	.cfi_endproc
.LFE12892:
	.size	_ZNSt25uniform_real_distributionIfE10param_typeC2Eff, .-_ZNSt25uniform_real_distributionIfE10param_typeC2Eff
	.weak	_ZNSt25uniform_real_distributionIfE10param_typeC1Eff
	.set	_ZNSt25uniform_real_distributionIfE10param_typeC1Eff,_ZNSt25uniform_real_distributionIfE10param_typeC2Eff
	.section	.text._ZNSt25uniform_real_distributionIfEclISt26linear_congruential_engineImLm16807ELm0ELm2147483647EEEEfRT_RKNS0_10param_typeE,"axG",@progbits,_ZNSt25uniform_real_distributionIfEclISt26linear_congruential_engineImLm16807ELm0ELm2147483647EEEEfRT_RKNS0_10param_typeE,comdat
	.align 2
	.weak	_ZNSt25uniform_real_distributionIfEclISt26linear_congruential_engineImLm16807ELm0ELm2147483647EEEEfRT_RKNS0_10param_typeE
	.type	_ZNSt25uniform_real_distributionIfEclISt26linear_congruential_engineImLm16807ELm0ELm2147483647EEEEfRT_RKNS0_10param_typeE, @function
_ZNSt25uniform_real_distributionIfEclISt26linear_congruential_engineImLm16807ELm0ELm2147483647EEEEfRT_RKNS0_10param_typeE:
.LFB12894:
	.loc 11 1904 2
	.cfi_startproc
	endbr64
	pushq	%rbp
	.cfi_def_cfa_offset 16
	.cfi_offset 6, -16
	movq	%rsp, %rbp
	.cfi_def_cfa_register 6
	pushq	%rbx
	subq	$56, %rsp
	.cfi_offset 3, -24
	movq	%rdi, -40(%rbp)
	movq	%rsi, -48(%rbp)
	movq	%rdx, -56(%rbp)
	.loc 11 1904 2
	movq	%fs:40, %rax
	movq	%rax, -24(%rbp)
	xorl	%eax, %eax
	.loc 11 1908 6
	movq	-48(%rbp), %rdx
	leaq	-32(%rbp), %rax
	movq	%rdx, %rsi
	movq	%rax, %rdi
	call	_ZNSt8__detail8_AdaptorISt26linear_congruential_engineImLm16807ELm0ELm2147483647EEfEC1ERS2_
	.loc 11 1909 19
	leaq	-32(%rbp), %rax
	movq	%rax, %rdi
	call	_ZNSt8__detail8_AdaptorISt26linear_congruential_engineImLm16807ELm0ELm2147483647EEfEclEv
	vmovss	%xmm0, -60(%rbp)
	.loc 11 1909 30 discriminator 1
	movq	-56(%rbp), %rax
	movq	%rax, %rdi
	call	_ZNKSt25uniform_real_distributionIfE10param_type1bEv
	vmovd	%xmm0, %ebx
	.loc 11 1909 40 discriminator 1
	movq	-56(%rbp), %rax
	movq	%rax, %rdi
	call	_ZNKSt25uniform_real_distributionIfE10param_type1aEv
	.loc 11 1909 33 discriminator 2
	vmovd	%ebx, %xmm1
	vsubss	%xmm0, %xmm1, %xmm0
	.loc 11 1909 22 discriminator 2
	vmulss	-60(%rbp), %xmm0, %xmm2
	vmovss	%xmm2, -60(%rbp)
	.loc 11 1909 52 discriminator 2
	movq	-56(%rbp), %rax
	movq	%rax, %rdi
	call	_ZNKSt25uniform_real_distributionIfE10param_type1aEv
	.loc 11 1909 53 discriminator 3
	vaddss	-60(%rbp), %xmm0, %xmm0
	.loc 11 1910 2
	movq	-24(%rbp), %rax
	subq	%fs:40, %rax
	je	.L95
	call	__stack_chk_fail@PLT
.L95:
	movq	-8(%rbp), %rbx
	leave
	.cfi_def_cfa 7, 8
	ret
	.cfi_endproc
.LFE12894:
	.size	_ZNSt25uniform_real_distributionIfEclISt26linear_congruential_engineImLm16807ELm0ELm2147483647EEEEfRT_RKNS0_10param_typeE, .-_ZNSt25uniform_real_distributionIfEclISt26linear_congruential_engineImLm16807ELm0ELm2147483647EEEEfRT_RKNS0_10param_typeE
	.section	.text._ZSt6invokeIRFvvEJEENSt13invoke_resultIT_JDpT0_EE4typeEOS3_DpOS4_,"axG",@progbits,_ZSt6invokeIRFvvEJEENSt13invoke_resultIT_JDpT0_EE4typeEOS3_DpOS4_,comdat
	.weak	_ZSt6invokeIRFvvEJEENSt13invoke_resultIT_JDpT0_EE4typeEOS3_DpOS4_
	.type	_ZSt6invokeIRFvvEJEENSt13invoke_resultIT_JDpT0_EE4typeEOS3_DpOS4_, @function
_ZSt6invokeIRFvvEJEENSt13invoke_resultIT_JDpT0_EE4typeEOS3_DpOS4_:
.LFB12895:
	.file 13 "/usr/include/c++/13/functional"
	.loc 13 110 5
	.cfi_startproc
	endbr64
	pushq	%rbp
	.cfi_def_cfa_offset 16
	.cfi_offset 6, -16
	movq	%rsp, %rbp
	.cfi_def_cfa_register 6
	subq	$16, %rsp
	movq	%rdi, -8(%rbp)
	.loc 13 113 27
	movq	-8(%rbp), %rax
	movq	%rax, %rdi
	call	_ZSt7forwardIRFvvEEOT_RNSt16remove_referenceIS2_E4typeE
	.loc 13 113 27 is_stmt 0 discriminator 1
	movq	%rax, %rdi
	call	_ZSt8__invokeIRFvvEJEENSt15__invoke_resultIT_JDpT0_EE4typeEOS3_DpOS4_
	.loc 13 114 37 is_stmt 1
	nop
	.loc 13 115 5
	leave
	.cfi_def_cfa 7, 8
	ret
	.cfi_endproc
.LFE12895:
	.size	_ZSt6invokeIRFvvEJEENSt13invoke_resultIT_JDpT0_EE4typeEOS3_DpOS4_, .-_ZSt6invokeIRFvvEJEENSt13invoke_resultIT_JDpT0_EE4typeEOS3_DpOS4_
	.section	.text._ZNSt6chrono13duration_castINS_8durationIlSt5ratioILl1ELl1000000000EEEElS3_EENSt9enable_ifIXsrNS_13__is_durationIT_EE5valueES7_E4typeERKNS1_IT0_T1_EE,"axG",@progbits,_ZNSt6chrono13duration_castINS_8durationIlSt5ratioILl1ELl1000000000EEEElS3_EENSt9enable_ifIXsrNS_13__is_durationIT_EE5valueES7_E4typeERKNS1_IT0_T1_EE,comdat
	.weak	_ZNSt6chrono13duration_castINS_8durationIlSt5ratioILl1ELl1000000000EEEElS3_EENSt9enable_ifIXsrNS_13__is_durationIT_EE5valueES7_E4typeERKNS1_IT0_T1_EE
	.type	_ZNSt6chrono13duration_castINS_8durationIlSt5ratioILl1ELl1000000000EEEElS3_EENSt9enable_ifIXsrNS_13__is_durationIT_EE5valueES7_E4typeERKNS1_IT0_T1_EE, @function
_ZNSt6chrono13duration_castINS_8durationIlSt5ratioILl1ELl1000000000EEEElS3_EENSt9enable_ifIXsrNS_13__is_durationIT_EE5valueES7_E4typeERKNS1_IT0_T1_EE:
.LFB12896:
	.loc 3 273 7
	.cfi_startproc
	endbr64
	pushq	%rbp
	.cfi_def_cfa_offset 16
	.cfi_offset 6, -16
	movq	%rsp, %rbp
	.cfi_def_cfa_register 6
	movq	%rdi, -8(%rbp)
	.loc 3 277 11
	movq	-8(%rbp), %rax
	movq	(%rax), %rax
	.loc 3 291 7
	popq	%rbp
	.cfi_def_cfa 7, 8
	ret
	.cfi_endproc
.LFE12896:
	.size	_ZNSt6chrono13duration_castINS_8durationIlSt5ratioILl1ELl1000000000EEEElS3_EENSt9enable_ifIXsrNS_13__is_durationIT_EE5valueES7_E4typeERKNS1_IT0_T1_EE, .-_ZNSt6chrono13duration_castINS_8durationIlSt5ratioILl1ELl1000000000EEEElS3_EENSt9enable_ifIXsrNS_13__is_durationIT_EE5valueES7_E4typeERKNS1_IT0_T1_EE
	.section	.text._ZNSt6chronomiIlSt5ratioILl1ELl1000000000EElS2_EENSt11common_typeIJNS_8durationIT_T0_EENS4_IT1_T2_EEEE4typeERKS7_RKSA_,"axG",@progbits,_ZNSt6chronomiIlSt5ratioILl1ELl1000000000EElS2_EENSt11common_typeIJNS_8durationIT_T0_EENS4_IT1_T2_EEEE4typeERKS7_RKSA_,comdat
	.weak	_ZNSt6chronomiIlSt5ratioILl1ELl1000000000EElS2_EENSt11common_typeIJNS_8durationIT_T0_EENS4_IT1_T2_EEEE4typeERKS7_RKSA_
	.type	_ZNSt6chronomiIlSt5ratioILl1ELl1000000000EElS2_EENSt11common_typeIJNS_8durationIT_T0_EENS4_IT1_T2_EEEE4typeERKS7_RKSA_, @function
_ZNSt6chronomiIlSt5ratioILl1ELl1000000000EElS2_EENSt11common_typeIJNS_8durationIT_T0_EENS4_IT1_T2_EEEE4typeERKS7_RKSA_:
.LFB12897:
	.loc 3 710 7
	.cfi_startproc
	endbr64
	pushq	%rbp
	.cfi_def_cfa_offset 16
	.cfi_offset 6, -16
	movq	%rsp, %rbp
	.cfi_def_cfa_register 6
	pushq	%rbx
	subq	$72, %rsp
	.cfi_offset 3, -24
	movq	%rdi, -72(%rbp)
	movq	%rsi, -80(%rbp)
	.loc 3 710 7
	movq	%fs:40, %rax
	movq	%rax, -24(%rbp)
	xorl	%eax, %eax
	.loc 3 716 14
	movq	-72(%rbp), %rax
	movq	(%rax), %rax
	movq	%rax, -56(%rbp)
	.loc 3 716 31
	leaq	-56(%rbp), %rax
	movq	%rax, %rdi
	call	_ZNKSt6chrono8durationIlSt5ratioILl1ELl1000000000EEE5countEv
	movq	%rax, %rbx
	.loc 3 716 36 discriminator 1
	movq	-80(%rbp), %rax
	movq	(%rax), %rax
	movq	%rax, -48(%rbp)
	.loc 3 716 53 discriminator 1
	leaq	-48(%rbp), %rax
	movq	%rax, %rdi
	call	_ZNKSt6chrono8durationIlSt5ratioILl1ELl1000000000EEE5countEv
	.loc 3 716 34 discriminator 2
	subq	%rax, %rbx
	movq	%rbx, %rdx
	movq	%rdx, -40(%rbp)
	.loc 3 716 9 discriminator 2
	leaq	-40(%rbp), %rdx
	leaq	-32(%rbp), %rax
	movq	%rdx, %rsi
	movq	%rax, %rdi
	call	_ZNSt6chrono8durationIlSt5ratioILl1ELl1000000000EEEC1IlvEERKT_
	.loc 3 716 55 discriminator 3
	movq	-32(%rbp), %rax
	.loc 3 717 7
	movq	-24(%rbp), %rdx
	subq	%fs:40, %rdx
	je	.L102
	call	__stack_chk_fail@PLT
.L102:
	movq	-8(%rbp), %rbx
	leave
	.cfi_def_cfa 7, 8
	ret
	.cfi_endproc
.LFE12897:
	.size	_ZNSt6chronomiIlSt5ratioILl1ELl1000000000EElS2_EENSt11common_typeIJNS_8durationIT_T0_EENS4_IT1_T2_EEEE4typeERKS7_RKSA_, .-_ZNSt6chronomiIlSt5ratioILl1ELl1000000000EElS2_EENSt11common_typeIJNS_8durationIT_T0_EENS4_IT1_T2_EEEE4typeERKS7_RKSA_
	.section	.text._ZNSt26linear_congruential_engineImLm16807ELm0ELm2147483647EE4seedEm,"axG",@progbits,_ZNSt26linear_congruential_engineImLm16807ELm0ELm2147483647EE4seedEm,comdat
	.align 2
	.weak	_ZNSt26linear_congruential_engineImLm16807ELm0ELm2147483647EE4seedEm
	.type	_ZNSt26linear_congruential_engineImLm16807ELm0ELm2147483647EE4seedEm, @function
_ZNSt26linear_congruential_engineImLm16807ELm0ELm2147483647EE4seedEm:
.LFB13060:
	.file 14 "/usr/include/c++/13/bits/random.tcc"
	.loc 14 118 5
	.cfi_startproc
	endbr64
	pushq	%rbp
	.cfi_def_cfa_offset 16
	.cfi_offset 6, -16
	movq	%rsp, %rbp
	.cfi_def_cfa_register 6
	subq	$16, %rsp
	movq	%rdi, -8(%rbp)
	movq	%rsi, -16(%rbp)
	.loc 14 121 43
	movl	$0, %edi
	call	_ZNSt8__detail5__modImLm2147483647ELm1ELm0EEET_S1_
	.loc 14 122 4
	testq	%rax, %rax
	jne	.L104
	.loc 14 122 39 discriminator 1
	movq	-16(%rbp), %rax
	movq	%rax, %rdi
	call	_ZNSt8__detail5__modImLm2147483647ELm1ELm0EEET_S1_
	.loc 14 122 4 discriminator 1
	testq	%rax, %rax
	jne	.L104
	.loc 14 122 4 is_stmt 0 discriminator 3
	movl	$1, %eax
	.loc 14 122 4
	jmp	.L105
.L104:
	.loc 14 122 4 discriminator 4
	movl	$0, %eax
.L105:
	.loc 14 121 7 is_stmt 1
	testb	%al, %al
	je	.L106
	.loc 14 123 7
	movq	-8(%rbp), %rax
	movq	$1, (%rax)
	.loc 14 126 5
	jmp	.L108
.L106:
	.loc 14 125 40
	movq	-16(%rbp), %rax
	movq	%rax, %rdi
	call	_ZNSt8__detail5__modImLm2147483647ELm1ELm0EEET_S1_
	.loc 14 125 7 discriminator 1
	movq	-8(%rbp), %rdx
	movq	%rax, (%rdx)
.L108:
	.loc 14 126 5
	nop
	leave
	.cfi_def_cfa 7, 8
	ret
	.cfi_endproc
.LFE13060:
	.size	_ZNSt26linear_congruential_engineImLm16807ELm0ELm2147483647EE4seedEm, .-_ZNSt26linear_congruential_engineImLm16807ELm0ELm2147483647EE4seedEm
	.section	.text._ZNSt8__detail8_AdaptorISt26linear_congruential_engineImLm16807ELm0ELm2147483647EEfEC2ERS2_,"axG",@progbits,_ZNSt8__detail8_AdaptorISt26linear_congruential_engineImLm16807ELm0ELm2147483647EEfEC5ERS2_,comdat
	.align 2
	.weak	_ZNSt8__detail8_AdaptorISt26linear_congruential_engineImLm16807ELm0ELm2147483647EEfEC2ERS2_
	.type	_ZNSt8__detail8_AdaptorISt26linear_congruential_engineImLm16807ELm0ELm2147483647EEfEC2ERS2_, @function
_ZNSt8__detail8_AdaptorISt26linear_congruential_engineImLm16807ELm0ELm2147483647EEfEC2ERS2_:
.LFB13062:
	.loc 11 173 2
	.cfi_startproc
	endbr64
	pushq	%rbp
	.cfi_def_cfa_offset 16
	.cfi_offset 6, -16
	movq	%rsp, %rbp
	.cfi_def_cfa_register 6
	movq	%rdi, -8(%rbp)
	movq	%rsi, -16(%rbp)
.LBB51:
	.loc 11 174 4
	movq	-8(%rbp), %rax
	movq	-16(%rbp), %rdx
	movq	%rdx, (%rax)
.LBE51:
	.loc 11 174 16
	nop
	popq	%rbp
	.cfi_def_cfa 7, 8
	ret
	.cfi_endproc
.LFE13062:
	.size	_ZNSt8__detail8_AdaptorISt26linear_congruential_engineImLm16807ELm0ELm2147483647EEfEC2ERS2_, .-_ZNSt8__detail8_AdaptorISt26linear_congruential_engineImLm16807ELm0ELm2147483647EEfEC2ERS2_
	.weak	_ZNSt8__detail8_AdaptorISt26linear_congruential_engineImLm16807ELm0ELm2147483647EEfEC1ERS2_
	.set	_ZNSt8__detail8_AdaptorISt26linear_congruential_engineImLm16807ELm0ELm2147483647EEfEC1ERS2_,_ZNSt8__detail8_AdaptorISt26linear_congruential_engineImLm16807ELm0ELm2147483647EEfEC2ERS2_
	.section	.text._ZNSt8__detail8_AdaptorISt26linear_congruential_engineImLm16807ELm0ELm2147483647EEfEclEv,"axG",@progbits,_ZNSt8__detail8_AdaptorISt26linear_congruential_engineImLm16807ELm0ELm2147483647EEfEclEv,comdat
	.align 2
	.weak	_ZNSt8__detail8_AdaptorISt26linear_congruential_engineImLm16807ELm0ELm2147483647EEfEclEv
	.type	_ZNSt8__detail8_AdaptorISt26linear_congruential_engineImLm16807ELm0ELm2147483647EEfEclEv, @function
_ZNSt8__detail8_AdaptorISt26linear_congruential_engineImLm16807ELm0ELm2147483647EEfEclEv:
.LFB13064:
	.loc 11 190 2
	.cfi_startproc
	endbr64
	pushq	%rbp
	.cfi_def_cfa_offset 16
	.cfi_offset 6, -16
	movq	%rsp, %rbp
	.cfi_def_cfa_register 6
	subq	$16, %rsp
	movq	%rdi, -8(%rbp)
	.loc 11 194 38
	movq	-8(%rbp), %rax
	movq	(%rax), %rax
	movq	%rax, %rdi
	call	_ZSt18generate_canonicalIfLm24ESt26linear_congruential_engineImLm16807ELm0ELm2147483647EEET_RT1_
	.loc 11 195 2
	leave
	.cfi_def_cfa 7, 8
	ret
	.cfi_endproc
.LFE13064:
	.size	_ZNSt8__detail8_AdaptorISt26linear_congruential_engineImLm16807ELm0ELm2147483647EEfEclEv, .-_ZNSt8__detail8_AdaptorISt26linear_congruential_engineImLm16807ELm0ELm2147483647EEfEclEv
	.section	.text._ZNKSt25uniform_real_distributionIfE10param_type1bEv,"axG",@progbits,_ZNKSt25uniform_real_distributionIfE10param_type1bEv,comdat
	.align 2
	.weak	_ZNKSt25uniform_real_distributionIfE10param_type1bEv
	.type	_ZNKSt25uniform_real_distributionIfE10param_type1bEv, @function
_ZNKSt25uniform_real_distributionIfE10param_type1bEv:
.LFB13065:
	.loc 11 1807 2
	.cfi_startproc
	endbr64
	pushq	%rbp
	.cfi_def_cfa_offset 16
	.cfi_offset 6, -16
	movq	%rsp, %rbp
	.cfi_def_cfa_register 6
	movq	%rdi, -8(%rbp)
	.loc 11 1808 11
	movq	-8(%rbp), %rax
	vmovss	4(%rax), %xmm0
	.loc 11 1808 17
	popq	%rbp
	.cfi_def_cfa 7, 8
	ret
	.cfi_endproc
.LFE13065:
	.size	_ZNKSt25uniform_real_distributionIfE10param_type1bEv, .-_ZNKSt25uniform_real_distributionIfE10param_type1bEv
	.section	.text._ZNKSt25uniform_real_distributionIfE10param_type1aEv,"axG",@progbits,_ZNKSt25uniform_real_distributionIfE10param_type1aEv,comdat
	.align 2
	.weak	_ZNKSt25uniform_real_distributionIfE10param_type1aEv
	.type	_ZNKSt25uniform_real_distributionIfE10param_type1aEv, @function
_ZNKSt25uniform_real_distributionIfE10param_type1aEv:
.LFB13066:
	.loc 11 1803 2
	.cfi_startproc
	endbr64
	pushq	%rbp
	.cfi_def_cfa_offset 16
	.cfi_offset 6, -16
	movq	%rsp, %rbp
	.cfi_def_cfa_register 6
	movq	%rdi, -8(%rbp)
	.loc 11 1804 11
	movq	-8(%rbp), %rax
	vmovss	(%rax), %xmm0
	.loc 11 1804 17
	popq	%rbp
	.cfi_def_cfa 7, 8
	ret
	.cfi_endproc
.LFE13066:
	.size	_ZNKSt25uniform_real_distributionIfE10param_type1aEv, .-_ZNKSt25uniform_real_distributionIfE10param_type1aEv
	.section	.text._ZSt8__invokeIRFvvEJEENSt15__invoke_resultIT_JDpT0_EE4typeEOS3_DpOS4_,"axG",@progbits,_ZSt8__invokeIRFvvEJEENSt15__invoke_resultIT_JDpT0_EE4typeEOS3_DpOS4_,comdat
	.weak	_ZSt8__invokeIRFvvEJEENSt15__invoke_resultIT_JDpT0_EE4typeEOS3_DpOS4_
	.type	_ZSt8__invokeIRFvvEJEENSt15__invoke_resultIT_JDpT0_EE4typeEOS3_DpOS4_, @function
_ZSt8__invokeIRFvvEJEENSt15__invoke_resultIT_JDpT0_EE4typeEOS3_DpOS4_:
.LFB13067:
	.file 15 "/usr/include/c++/13/bits/invoke.h"
	.loc 15 90 5
	.cfi_startproc
	endbr64
	pushq	%rbp
	.cfi_def_cfa_offset 16
	.cfi_offset 6, -16
	movq	%rsp, %rbp
	.cfi_def_cfa_register 6
	subq	$16, %rsp
	movq	%rdi, -8(%rbp)
	.loc 15 96 40
	movq	-8(%rbp), %rax
	movq	%rax, %rdi
	call	_ZSt7forwardIRFvvEEOT_RNSt16remove_referenceIS2_E4typeE
	.loc 15 96 40 is_stmt 0 discriminator 1
	movq	%rax, %rdi
	call	_ZSt13__invoke_implIvRFvvEJEET_St14__invoke_otherOT0_DpOT1_
	.loc 15 97 36 is_stmt 1
	nop
	.loc 15 98 5
	leave
	.cfi_def_cfa 7, 8
	ret
	.cfi_endproc
.LFE13067:
	.size	_ZSt8__invokeIRFvvEJEENSt15__invoke_resultIT_JDpT0_EE4typeEOS3_DpOS4_, .-_ZSt8__invokeIRFvvEJEENSt15__invoke_resultIT_JDpT0_EE4typeEOS3_DpOS4_
	.section	.text._ZNSt8__detail5__modImLm2147483647ELm1ELm0EEET_S1_,"axG",@progbits,_ZNSt8__detail5__modImLm2147483647ELm1ELm0EEET_S1_,comdat
	.weak	_ZNSt8__detail5__modImLm2147483647ELm1ELm0EEET_S1_
	.type	_ZNSt8__detail5__modImLm2147483647ELm1ELm0EEET_S1_, @function
_ZNSt8__detail5__modImLm2147483647ELm1ELm0EEET_S1_:
.LFB13163:
	.loc 11 150 7
	.cfi_startproc
	endbr64
	pushq	%rbp
	.cfi_def_cfa_offset 16
	.cfi_offset 6, -16
	movq	%rsp, %rbp
	.cfi_def_cfa_register 6
	subq	$32, %rsp
	movq	%rdi, -24(%rbp)
.LBB52:
.LBB53:
	.loc 11 157 20
	movq	$1, -8(%rbp)
	.loc 11 158 46
	movq	-24(%rbp), %rax
	movq	%rax, %rdi
	call	_ZNSt8__detail4_ModImLm2147483647ELm1ELm0ELb1ELb1EE6__calcEm
.LBE53:
.LBE52:
	.loc 11 160 7
	leave
	.cfi_def_cfa 7, 8
	ret
	.cfi_endproc
.LFE13163:
	.size	_ZNSt8__detail5__modImLm2147483647ELm1ELm0EEET_S1_, .-_ZNSt8__detail5__modImLm2147483647ELm1ELm0EEET_S1_
	.section	.text._ZNSt26linear_congruential_engineImLm16807ELm0ELm2147483647EE3minEv,"axG",@progbits,_ZNSt26linear_congruential_engineImLm16807ELm0ELm2147483647EE3minEv,comdat
	.weak	_ZNSt26linear_congruential_engineImLm16807ELm0ELm2147483647EE3minEv
	.type	_ZNSt26linear_congruential_engineImLm16807ELm0ELm2147483647EE3minEv, @function
_ZNSt26linear_congruential_engineImLm16807ELm0ELm2147483647EE3minEv:
.LFB13166:
	.loc 11 344 7
	.cfi_startproc
	endbr64
	pushq	%rbp
	.cfi_def_cfa_offset 16
	.cfi_offset 6, -16
	movq	%rsp, %rbp
	.cfi_def_cfa_register 6
	.loc 11 345 33
	movl	$1, %eax
	.loc 11 345 37
	popq	%rbp
	.cfi_def_cfa 7, 8
	ret
	.cfi_endproc
.LFE13166:
	.size	_ZNSt26linear_congruential_engineImLm16807ELm0ELm2147483647EE3minEv, .-_ZNSt26linear_congruential_engineImLm16807ELm0ELm2147483647EE3minEv
	.section	.text._ZSt18generate_canonicalIfLm24ESt26linear_congruential_engineImLm16807ELm0ELm2147483647EEET_RT1_,"axG",@progbits,_ZSt18generate_canonicalIfLm24ESt26linear_congruential_engineImLm16807ELm0ELm2147483647EEET_RT1_,comdat
	.weak	_ZSt18generate_canonicalIfLm24ESt26linear_congruential_engineImLm16807ELm0ELm2147483647EEET_RT1_
	.type	_ZSt18generate_canonicalIfLm24ESt26linear_congruential_engineImLm16807ELm0ELm2147483647EEET_RT1_, @function
_ZSt18generate_canonicalIfLm24ESt26linear_congruential_engineImLm16807ELm0ELm2147483647EEET_RT1_:
.LFB13164:
	.loc 14 3349 5
	.cfi_startproc
	endbr64
	pushq	%rbp
	.cfi_def_cfa_offset 16
	.cfi_offset 6, -16
	movq	%rsp, %rbp
	.cfi_def_cfa_register 6
	pushq	%rbx
	subq	$136, %rsp
	.cfi_offset 3, -24
	movq	%rdi, -120(%rbp)
	.loc 14 3349 5
	movq	%fs:40, %rax
	movq	%rax, -24(%rbp)
	xorl	%eax, %eax
	.loc 14 3354 20
	movq	$24, -72(%rbp)
	.loc 14 3357 25
	fldt	.LC14(%rip)
	fstpt	-48(%rbp)
	.loc 14 3359 38
	fldt	.LC14(%rip)
	leaq	-16(%rsp), %rsp
	fstpt	(%rsp)
	call	_ZSt3loge
	addq	$16, %rsp
	fstpt	-144(%rbp)
	.loc 14 3359 54 discriminator 1
	fldt	.LC15(%rip)
	leaq	-16(%rsp), %rsp
	fstpt	(%rsp)
	call	_ZSt3loge
	addq	$16, %rsp
	.loc 14 3359 44 discriminator 2
	fldt	-144(%rbp)
	fdivp	%st, %st(1)
	.loc 14 3359 20 discriminator 2
	fldt	.LC16(%rip)
	fxch	%st(1)
	fcomi	%st(1), %st
	fstp	%st(1)
	jnb	.L123
	fisttpq	-64(%rbp)
	jmp	.L124
.L123:
	fldt	.LC16(%rip)
	fsubrp	%st, %st(1)
	fisttpq	-64(%rbp)
	movabsq	$-9223372036854775808, %rax
	xorq	%rax, -64(%rbp)
.L124:
	movq	-64(%rbp), %rax
	movq	%rax, -64(%rbp)
	.loc 14 3361 23
	movq	-64(%rbp), %rax
	addq	$23, %rax
	.loc 14 3361 30
	movl	$0, %edx
	divq	-64(%rbp)
	movq	%rax, -88(%rbp)
	.loc 14 3360 43
	movq	$1, -96(%rbp)
	.loc 14 3360 42
	leaq	-88(%rbp), %rdx
	leaq	-96(%rbp), %rax
	movq	%rdx, %rsi
	movq	%rax, %rdi
	call	_ZSt3maxImERKT_S2_S2_
	.loc 14 3360 20 discriminator 1
	movq	(%rax), %rax
	movq	%rax, -56(%rbp)
	.loc 14 3363 17
	vxorps	%xmm0, %xmm0, %xmm0
	vmovss	%xmm0, -104(%rbp)
	.loc 14 3364 17
	vmovss	.LC10(%rip), %xmm0
	vmovss	%xmm0, -100(%rbp)
.LBB54:
	.loc 14 3365 19
	movq	-56(%rbp), %rax
	movq	%rax, -80(%rbp)
	.loc 14 3365 7
	jmp	.L125
.L128:
	.loc 14 3367 29
	movq	-120(%rbp), %rax
	movq	%rax, %rdi
	call	_ZNSt26linear_congruential_engineImLm16807ELm0ELm2147483647EEclEv
	movq	%rax, %rbx
	.loc 14 3367 44 discriminator 1
	call	_ZNSt26linear_congruential_engineImLm16807ELm0ELm2147483647EE3minEv
	movq	%rax, %rdx
	.loc 14 3367 32 discriminator 2
	movq	%rbx, %rax
	subq	%rdx, %rax
	.loc 14 3367 13 discriminator 2
	testq	%rax, %rax
	js	.L126
	vcvtsi2ssq	%rax, %xmm0, %xmm0
	jmp	.L127
.L126:
	movq	%rax, %rdx
	shrq	%rdx
	andl	$1, %eax
	orq	%rax, %rdx
	vcvtsi2ssq	%rdx, %xmm0, %xmm0
	vaddss	%xmm0, %xmm0, %xmm0
.L127:
	.loc 14 3367 48 discriminator 2
	vmulss	-100(%rbp), %xmm0, %xmm0
	.loc 14 3367 10 discriminator 2
	vmovss	-104(%rbp), %xmm1
	vaddss	%xmm0, %xmm1, %xmm0
	vmovss	%xmm0, -104(%rbp)
	.loc 14 3368 10
	flds	-100(%rbp)
	fldt	.LC14(%rip)
	fmulp	%st, %st(1)
	fstps	-100(%rbp)
	.loc 14 3365 7 discriminator 3
	subq	$1, -80(%rbp)
.L125:
	.loc 14 3365 34 discriminator 1
	cmpq	$0, -80(%rbp)
	jne	.L128
.LBE54:
	.loc 14 3370 13
	vmovss	-104(%rbp), %xmm0
	vdivss	-100(%rbp), %xmm0, %xmm0
	vmovss	%xmm0, -108(%rbp)
	.loc 14 3371 34
	vmovss	-108(%rbp), %xmm0
	vmovss	.LC10(%rip), %xmm1
	vcomiss	%xmm1, %xmm0
	setnb	%al
	.loc 14 3371 27
	movzbl	%al, %eax
	.loc 14 3371 7 discriminator 1
	testq	%rax, %rax
	je	.L129
	.loc 14 3374 26
	vxorps	%xmm1, %xmm1, %xmm1
	movl	.LC10(%rip), %eax
	vmovd	%eax, %xmm0
	call	_ZSt9nextafterff
	vmovd	%xmm0, %eax
	movl	%eax, -108(%rbp)
.L129:
	.loc 14 3380 14
	vmovss	-108(%rbp), %xmm0
	.loc 14 3381 5
	movq	-24(%rbp), %rax
	subq	%fs:40, %rax
	je	.L131
	call	__stack_chk_fail@PLT
.L131:
	movq	-8(%rbp), %rbx
	leave
	.cfi_def_cfa 7, 8
	ret
	.cfi_endproc
.LFE13164:
	.size	_ZSt18generate_canonicalIfLm24ESt26linear_congruential_engineImLm16807ELm0ELm2147483647EEET_RT1_, .-_ZSt18generate_canonicalIfLm24ESt26linear_congruential_engineImLm16807ELm0ELm2147483647EEET_RT1_
	.section	.text._ZSt13__invoke_implIvRFvvEJEET_St14__invoke_otherOT0_DpOT1_,"axG",@progbits,_ZSt13__invoke_implIvRFvvEJEET_St14__invoke_otherOT0_DpOT1_,comdat
	.weak	_ZSt13__invoke_implIvRFvvEJEET_St14__invoke_otherOT0_DpOT1_
	.type	_ZSt13__invoke_implIvRFvvEJEET_St14__invoke_otherOT0_DpOT1_, @function
_ZSt13__invoke_implIvRFvvEJEET_St14__invoke_otherOT0_DpOT1_:
.LFB13167:
	.loc 15 60 5
	.cfi_startproc
	endbr64
	pushq	%rbp
	.cfi_def_cfa_offset 16
	.cfi_offset 6, -16
	movq	%rsp, %rbp
	.cfi_def_cfa_register 6
	subq	$16, %rsp
	movq	%rdi, -8(%rbp)
	.loc 15 61 31
	movq	-8(%rbp), %rax
	movq	%rax, %rdi
	call	_ZSt7forwardIRFvvEEOT_RNSt16remove_referenceIS2_E4typeE
	.loc 15 61 36 discriminator 1
	call	*%rax
.LVL0:
	.loc 15 61 67
	nop
	.loc 15 61 70
	leave
	.cfi_def_cfa 7, 8
	ret
	.cfi_endproc
.LFE13167:
	.size	_ZSt13__invoke_implIvRFvvEJEET_St14__invoke_otherOT0_DpOT1_, .-_ZSt13__invoke_implIvRFvvEJEET_St14__invoke_otherOT0_DpOT1_
	.section	.text._ZNSt8__detail4_ModImLm2147483647ELm1ELm0ELb1ELb1EE6__calcEm,"axG",@progbits,_ZNSt8__detail4_ModImLm2147483647ELm1ELm0ELb1ELb1EE6__calcEm,comdat
	.weak	_ZNSt8__detail4_ModImLm2147483647ELm1ELm0ELb1ELb1EE6__calcEm
	.type	_ZNSt8__detail4_ModImLm2147483647ELm1ELm0ELb1ELb1EE6__calcEm, @function
_ZNSt8__detail4_ModImLm2147483647ELm1ELm0ELb1ELb1EE6__calcEm:
.LFB13221:
	.loc 11 139 2
	.cfi_startproc
	endbr64
	pushq	%rbp
	.cfi_def_cfa_offset 16
	.cfi_offset 6, -16
	movq	%rsp, %rbp
	.cfi_def_cfa_register 6
	movq	%rdi, -24(%rbp)
	.loc 11 141 8
	movq	-24(%rbp), %rax
	movq	%rax, -8(%rbp)
	.loc 11 143 12
	movq	-8(%rbp), %rcx
	movabsq	$8589934597, %rdx
	movq	%rcx, %rax
	mulq	%rdx
	movq	%rcx, %rax
	subq	%rdx, %rax
	shrq	%rax
	addq	%rdx, %rax
	shrq	$30, %rax
	movq	%rax, %rdx
	movq	%rdx, %rax
	salq	$31, %rax
	subq	%rdx, %rax
	subq	%rax, %rcx
	movq	%rcx, %rdx
	movq	%rdx, -8(%rbp)
	.loc 11 144 11
	movq	-8(%rbp), %rax
	.loc 11 145 2
	popq	%rbp
	.cfi_def_cfa 7, 8
	ret
	.cfi_endproc
.LFE13221:
	.size	_ZNSt8__detail4_ModImLm2147483647ELm1ELm0ELb1ELb1EE6__calcEm, .-_ZNSt8__detail4_ModImLm2147483647ELm1ELm0ELb1ELb1EE6__calcEm
	.section	.text._ZNSt26linear_congruential_engineImLm16807ELm0ELm2147483647EEclEv,"axG",@progbits,_ZNSt26linear_congruential_engineImLm16807ELm0ELm2147483647EEclEv,comdat
	.align 2
	.weak	_ZNSt26linear_congruential_engineImLm16807ELm0ELm2147483647EEclEv
	.type	_ZNSt26linear_congruential_engineImLm16807ELm0ELm2147483647EEclEv, @function
_ZNSt26linear_congruential_engineImLm16807ELm0ELm2147483647EEclEv:
.LFB13222:
	.loc 11 368 7
	.cfi_startproc
	endbr64
	pushq	%rbp
	.cfi_def_cfa_offset 16
	.cfi_offset 6, -16
	movq	%rsp, %rbp
	.cfi_def_cfa_register 6
	subq	$16, %rsp
	movq	%rdi, -8(%rbp)
	.loc 11 370 50
	movq	-8(%rbp), %rax
	movq	(%rax), %rax
	movq	%rax, %rdi
	call	_ZNSt8__detail5__modImLm2147483647ELm16807ELm0EEET_S1_
	.loc 11 370 7 discriminator 1
	movq	-8(%rbp), %rdx
	movq	%rax, (%rdx)
	.loc 11 371 9
	movq	-8(%rbp), %rax
	movq	(%rax), %rax
	.loc 11 372 7
	leave
	.cfi_def_cfa 7, 8
	ret
	.cfi_endproc
.LFE13222:
	.size	_ZNSt26linear_congruential_engineImLm16807ELm0ELm2147483647EEclEv, .-_ZNSt26linear_congruential_engineImLm16807ELm0ELm2147483647EEclEv
	.section	.text._ZNSt8__detail5__modImLm2147483647ELm16807ELm0EEET_S1_,"axG",@progbits,_ZNSt8__detail5__modImLm2147483647ELm16807ELm0EEET_S1_,comdat
	.weak	_ZNSt8__detail5__modImLm2147483647ELm16807ELm0EEET_S1_
	.type	_ZNSt8__detail5__modImLm2147483647ELm16807ELm0EEET_S1_, @function
_ZNSt8__detail5__modImLm2147483647ELm16807ELm0EEET_S1_:
.LFB13241:
	.loc 11 150 7
	.cfi_startproc
	endbr64
	pushq	%rbp
	.cfi_def_cfa_offset 16
	.cfi_offset 6, -16
	movq	%rsp, %rbp
	.cfi_def_cfa_register 6
	subq	$32, %rsp
	movq	%rdi, -24(%rbp)
.LBB55:
.LBB56:
	.loc 11 157 20
	movq	$16807, -8(%rbp)
	.loc 11 158 46
	movq	-24(%rbp), %rax
	movq	%rax, %rdi
	call	_ZNSt8__detail4_ModImLm2147483647ELm16807ELm0ELb1ELb1EE6__calcEm
.LBE56:
.LBE55:
	.loc 11 160 7
	leave
	.cfi_def_cfa 7, 8
	ret
	.cfi_endproc
.LFE13241:
	.size	_ZNSt8__detail5__modImLm2147483647ELm16807ELm0EEET_S1_, .-_ZNSt8__detail5__modImLm2147483647ELm16807ELm0EEET_S1_
	.section	.text._ZNSt8__detail4_ModImLm2147483647ELm16807ELm0ELb1ELb1EE6__calcEm,"axG",@progbits,_ZNSt8__detail4_ModImLm2147483647ELm16807ELm0ELb1ELb1EE6__calcEm,comdat
	.weak	_ZNSt8__detail4_ModImLm2147483647ELm16807ELm0ELb1ELb1EE6__calcEm
	.type	_ZNSt8__detail4_ModImLm2147483647ELm16807ELm0ELb1ELb1EE6__calcEm, @function
_ZNSt8__detail4_ModImLm2147483647ELm16807ELm0ELb1ELb1EE6__calcEm:
.LFB13249:
	.loc 11 139 2
	.cfi_startproc
	endbr64
	pushq	%rbp
	.cfi_def_cfa_offset 16
	.cfi_offset 6, -16
	movq	%rsp, %rbp
	.cfi_def_cfa_register 6
	movq	%rdi, -24(%rbp)
	.loc 11 141 8
	movq	-24(%rbp), %rax
	imulq	$16807, %rax, %rax
	movq	%rax, -8(%rbp)
	.loc 11 143 12
	movq	-8(%rbp), %rcx
	movabsq	$8589934597, %rdx
	movq	%rcx, %rax
	mulq	%rdx
	movq	%rcx, %rax
	subq	%rdx, %rax
	shrq	%rax
	addq	%rdx, %rax
	shrq	$30, %rax
	movq	%rax, %rdx
	movq	%rdx, %rax
	salq	$31, %rax
	subq	%rdx, %rax
	subq	%rax, %rcx
	movq	%rcx, %rdx
	movq	%rdx, -8(%rbp)
	.loc 11 144 11
	movq	-8(%rbp), %rax
	.loc 11 145 2
	popq	%rbp
	.cfi_def_cfa 7, 8
	ret
	.cfi_endproc
.LFE13249:
	.size	_ZNSt8__detail4_ModImLm2147483647ELm16807ELm0ELb1ELb1EE6__calcEm, .-_ZNSt8__detail4_ModImLm2147483647ELm16807ELm0ELb1ELb1EE6__calcEm
	.section	.rodata
	.type	_ZNSt8__detail14__destructibleISt13_Bit_iteratorEE, @object
	.size	_ZNSt8__detail14__destructibleISt13_Bit_iteratorEE, 1
_ZNSt8__detail14__destructibleISt13_Bit_iteratorEE:
	.byte	1
	.type	_ZNSt8__detail19__destructible_implISt13_Bit_iteratorEE, @object
	.size	_ZNSt8__detail19__destructible_implISt13_Bit_iteratorEE, 1
_ZNSt8__detail19__destructible_implISt13_Bit_iteratorEE:
	.byte	1
	.type	_ZNSt8__detail14__destructibleISt19_Bit_const_iteratorEE, @object
	.size	_ZNSt8__detail14__destructibleISt19_Bit_const_iteratorEE, 1
_ZNSt8__detail14__destructibleISt19_Bit_const_iteratorEE:
	.byte	1
	.type	_ZNSt8__detail19__destructible_implISt19_Bit_const_iteratorEE, @object
	.size	_ZNSt8__detail19__destructible_implISt19_Bit_const_iteratorEE, 1
_ZNSt8__detail19__destructible_implISt19_Bit_const_iteratorEE:
	.byte	1
	.type	_ZNSt8__detail14__destructibleINSt8__format10_Sink_iterIcEEEE, @object
	.size	_ZNSt8__detail14__destructibleINSt8__format10_Sink_iterIcEEEE, 1
_ZNSt8__detail14__destructibleINSt8__format10_Sink_iterIcEEEE:
	.byte	1
	.type	_ZNSt8__detail19__destructible_implINSt8__format10_Sink_iterIcEEEE, @object
	.size	_ZNSt8__detail19__destructible_implINSt8__format10_Sink_iterIcEEEE, 1
_ZNSt8__detail19__destructible_implINSt8__format10_Sink_iterIcEEEE:
	.byte	1
	.type	_ZNSt8__detail14__destructibleINSt8__format10_Sink_iterIwEEEE, @object
	.size	_ZNSt8__detail14__destructibleINSt8__format10_Sink_iterIwEEEE, 1
_ZNSt8__detail14__destructibleINSt8__format10_Sink_iterIwEEEE:
	.byte	1
	.type	_ZNSt8__detail19__destructible_implINSt8__format10_Sink_iterIwEEEE, @object
	.size	_ZNSt8__detail19__destructible_implINSt8__format10_Sink_iterIwEEEE, 1
_ZNSt8__detail19__destructible_implINSt8__format10_Sink_iterIwEEEE:
	.byte	1
	.type	_ZNSt8__detail14__destructibleIPcEE, @object
	.size	_ZNSt8__detail14__destructibleIPcEE, 1
_ZNSt8__detail14__destructibleIPcEE:
	.byte	1
	.type	_ZNSt8__detail19__destructible_implIPcEE, @object
	.size	_ZNSt8__detail19__destructible_implIPcEE, 1
_ZNSt8__detail19__destructible_implIPcEE:
	.byte	1
	.type	_ZNSt8__detail14__destructibleIPwEE, @object
	.size	_ZNSt8__detail14__destructibleIPwEE, 1
_ZNSt8__detail14__destructibleIPwEE:
	.byte	1
	.type	_ZNSt8__detail19__destructible_implIPwEE, @object
	.size	_ZNSt8__detail19__destructible_implIPwEE, 1
_ZNSt8__detail19__destructible_implIPwEE:
	.byte	1
	.type	_ZSt12__is_ratio_vISt5ratioILl1ELl1000000000EEE, @object
	.size	_ZSt12__is_ratio_vISt5ratioILl1ELl1000000000EEE, 1
_ZSt12__is_ratio_vISt5ratioILl1ELl1000000000EEE:
	.byte	1
	.type	_ZSt12__is_ratio_vISt5ratioILl1ELl1EEE, @object
	.size	_ZSt12__is_ratio_vISt5ratioILl1ELl1EEE, 1
_ZSt12__is_ratio_vISt5ratioILl1ELl1EEE:
	.byte	1
	.type	_ZNSt8__detail30__integer_to_chars_is_unsignedIjEE, @object
	.size	_ZNSt8__detail30__integer_to_chars_is_unsignedIjEE, 1
_ZNSt8__detail30__integer_to_chars_is_unsignedIjEE:
	.byte	1
	.type	_ZNSt8__detail30__integer_to_chars_is_unsignedImEE, @object
	.size	_ZNSt8__detail30__integer_to_chars_is_unsignedImEE, 1
_ZNSt8__detail30__integer_to_chars_is_unsignedImEE:
	.byte	1
	.type	_ZNSt8__detail30__integer_to_chars_is_unsignedIyEE, @object
	.size	_ZNSt8__detail30__integer_to_chars_is_unsignedIyEE, 1
_ZNSt8__detail30__integer_to_chars_is_unsignedIyEE:
	.byte	1
	.type	_ZSt12__is_ratio_vISt5ratioILl1000000000ELl1EEE, @object
	.size	_ZSt12__is_ratio_vISt5ratioILl1000000000ELl1EEE, 1
_ZSt12__is_ratio_vISt5ratioILl1000000000ELl1EEE:
	.byte	1
	.type	_ZNSt8__detail30__integer_to_chars_is_unsignedIoEE, @object
	.size	_ZNSt8__detail30__integer_to_chars_is_unsignedIoEE, 1
_ZNSt8__detail30__integer_to_chars_is_unsignedIoEE:
	.byte	1
	.type	_ZSt22__is_specialization_ofINSt7__cxx1112basic_stringIcSt11char_traitsIcESaIcEEES1_E, @object
	.size	_ZSt22__is_specialization_ofINSt7__cxx1112basic_stringIcSt11char_traitsIcESaIcEEES1_E, 1
_ZSt22__is_specialization_ofINSt7__cxx1112basic_stringIcSt11char_traitsIcESaIcEEES1_E:
	.byte	1
	.type	_ZSt22__is_specialization_ofINSt7__cxx1112basic_stringIwSt11char_traitsIwESaIwEEES1_E, @object
	.size	_ZSt22__is_specialization_ofINSt7__cxx1112basic_stringIwSt11char_traitsIwESaIwEEES1_E, 1
_ZSt22__is_specialization_ofINSt7__cxx1112basic_stringIwSt11char_traitsIwESaIwEEES1_E:
	.byte	1
	.type	_ZSt12__is_ratio_vISt5ratioILl31556952ELl1EEE, @object
	.size	_ZSt12__is_ratio_vISt5ratioILl31556952ELl1EEE, 1
_ZSt12__is_ratio_vISt5ratioILl31556952ELl1EEE:
	.byte	1
	.type	_ZSt12__is_ratio_vISt5ratioILl1ELl2629746EEE, @object
	.size	_ZSt12__is_ratio_vISt5ratioILl1ELl2629746EEE, 1
_ZSt12__is_ratio_vISt5ratioILl1ELl2629746EEE:
	.byte	1
	.type	_ZNSt8__detail14__destructibleImEE, @object
	.size	_ZNSt8__detail14__destructibleImEE, 1
_ZNSt8__detail14__destructibleImEE:
	.byte	1
	.type	_ZNSt8__detail19__destructible_implImEE, @object
	.size	_ZNSt8__detail19__destructible_implImEE, 1
_ZNSt8__detail19__destructible_implImEE:
	.byte	1
	.type	_ZNSt8__detail14__destructibleIPKcEE, @object
	.size	_ZNSt8__detail14__destructibleIPKcEE, 1
_ZNSt8__detail14__destructibleIPKcEE:
	.byte	1
	.type	_ZNSt8__detail19__destructible_implIPKcEE, @object
	.size	_ZNSt8__detail19__destructible_implIPKcEE, 1
_ZNSt8__detail19__destructible_implIPKcEE:
	.byte	1
	.type	_ZNSt8__detail14__destructibleIPKwEE, @object
	.size	_ZNSt8__detail14__destructibleIPKwEE, 1
_ZNSt8__detail14__destructibleIPKwEE:
	.byte	1
	.type	_ZNSt8__detail19__destructible_implIPKwEE, @object
	.size	_ZNSt8__detail19__destructible_implIPKwEE, 1
_ZNSt8__detail19__destructible_implIPKwEE:
	.byte	1
	.type	_ZNSt8__detail14__destructibleIN9__gnu_cxx17__normal_iteratorIPwSt4spanIwLm18446744073709551615EEEEEE, @object
	.size	_ZNSt8__detail14__destructibleIN9__gnu_cxx17__normal_iteratorIPwSt4spanIwLm18446744073709551615EEEEEE, 1
_ZNSt8__detail14__destructibleIN9__gnu_cxx17__normal_iteratorIPwSt4spanIwLm18446744073709551615EEEEEE:
	.byte	1
	.type	_ZNSt8__detail19__destructible_implIN9__gnu_cxx17__normal_iteratorIPwSt4spanIwLm18446744073709551615EEEEEE, @object
	.size	_ZNSt8__detail19__destructible_implIN9__gnu_cxx17__normal_iteratorIPwSt4spanIwLm18446744073709551615EEEEEE, 1
_ZNSt8__detail19__destructible_implIN9__gnu_cxx17__normal_iteratorIPwSt4spanIwLm18446744073709551615EEEEEE:
	.byte	1
	.type	_ZNSt8__detail14__destructibleIN9__gnu_cxx17__normal_iteratorIPcSt4spanIcLm18446744073709551615EEEEEE, @object
	.size	_ZNSt8__detail14__destructibleIN9__gnu_cxx17__normal_iteratorIPcSt4spanIcLm18446744073709551615EEEEEE, 1
_ZNSt8__detail14__destructibleIN9__gnu_cxx17__normal_iteratorIPcSt4spanIcLm18446744073709551615EEEEEE:
	.byte	1
	.type	_ZNSt8__detail19__destructible_implIN9__gnu_cxx17__normal_iteratorIPcSt4spanIcLm18446744073709551615EEEEEE, @object
	.size	_ZNSt8__detail19__destructible_implIN9__gnu_cxx17__normal_iteratorIPcSt4spanIcLm18446744073709551615EEEEEE, 1
_ZNSt8__detail19__destructible_implIN9__gnu_cxx17__normal_iteratorIPcSt4spanIcLm18446744073709551615EEEEEE:
	.byte	1
	.type	_ZNSt8__detail14__destructibleIiEE, @object
	.size	_ZNSt8__detail14__destructibleIiEE, 1
_ZNSt8__detail14__destructibleIiEE:
	.byte	1
	.type	_ZNSt8__detail19__destructible_implIiEE, @object
	.size	_ZNSt8__detail19__destructible_implIiEE, 1
_ZNSt8__detail19__destructible_implIiEE:
	.byte	1
	.type	_ZNSt8__detail14__destructibleIjEE, @object
	.size	_ZNSt8__detail14__destructibleIjEE, 1
_ZNSt8__detail14__destructibleIjEE:
	.byte	1
	.type	_ZNSt8__detail19__destructible_implIjEE, @object
	.size	_ZNSt8__detail19__destructible_implIjEE, 1
_ZNSt8__detail19__destructible_implIjEE:
	.byte	1
	.type	_ZNSt8__detail14__destructibleIlEE, @object
	.size	_ZNSt8__detail14__destructibleIlEE, 1
_ZNSt8__detail14__destructibleIlEE:
	.byte	1
	.type	_ZNSt8__detail19__destructible_implIlEE, @object
	.size	_ZNSt8__detail19__destructible_implIlEE, 1
_ZNSt8__detail19__destructible_implIlEE:
	.byte	1
	.align 16
.LC0:
	.long	2147483647
	.long	0
	.long	0
	.long	0
	.align 8
.LC2:
	.long	-1598689907
	.long	1051772663
	.align 4
.LC10:
	.long	1065353216
	.align 4
.LC11:
	.long	0
	.align 16
.LC14:
	.long	0
	.long	-4
	.long	16413
	.long	0
	.align 16
.LC15:
	.long	0
	.long	-2147483648
	.long	16384
	.long	0
	.align 16
.LC16:
	.long	0
	.long	-2147483648
	.long	16446
	.long	0
	.text
.Letext0:
	.file 16 "/usr/lib/gcc/x86_64-linux-gnu/13/include/stddef.h"
	.file 17 "/usr/include/stdlib.h"
	.file 18 "/usr/include/x86_64-linux-gnu/bits/types.h"
	.file 19 "/usr/include/x86_64-linux-gnu/bits/types/clock_t.h"
	.file 20 "/usr/include/x86_64-linux-gnu/bits/types/time_t.h"
	.file 21 "/usr/include/x86_64-linux-gnu/bits/stdint-intn.h"
	.file 22 "/usr/include/x86_64-linux-gnu/bits/types/struct_timespec.h"
	.file 23 "/usr/include/c++/13/cstdlib"
	.file 24 "/usr/include/c++/13/type_traits"
	.file 25 "/usr/include/c++/13/cstdint"
	.file 26 "/usr/include/c++/13/ctime"
	.file 27 "/usr/include/c++/13/concepts"
	.file 28 "/usr/include/c++/13/bits/iterator_concepts.h"
	.file 29 "/usr/include/c++/13/bits/ranges_cmp.h"
	.file 30 "/usr/include/c++/13/compare"
	.file 31 "/usr/include/c++/13/span"
	.file 32 "/usr/include/c++/13/bits/basic_string.h"
	.file 33 "/usr/include/c++/13/bits/charconv.h"
	.file 34 "/usr/include/c++/13/ratio"
	.file 35 "/usr/include/c++/13/cwchar"
	.file 36 "/usr/include/c++/13/bits/exception_ptr.h"
	.file 37 "/usr/include/c++/13/clocale"
	.file 38 "/usr/include/c++/13/debug/debug.h"
	.file 39 "/usr/include/c++/13/numbers"
	.file 40 "/usr/include/c++/13/cstdio"
	.file 41 "/usr/include/c++/13/cstddef"
	.file 42 "/usr/include/c++/13/cwctype"
	.file 43 "/usr/include/c++/13/ostream"
	.file 44 "/usr/include/c++/13/bits/shared_ptr_base.h"
	.file 45 "/usr/include/c++/13/bits/parse_numbers.h"
	.file 46 "/usr/include/c++/13/bits/stl_iterator_base_types.h"
	.file 47 "/usr/include/c++/13/charconv"
	.file 48 "/usr/include/x86_64-linux-gnu/c++/13/bits/error_constants.h"
	.file 49 "/usr/include/c++/13/bits/stl_pair.h"
	.file 50 "/usr/include/c++/13/format"
	.file 51 "/usr/include/c++/13/iosfwd"
	.file 52 "/usr/include/c++/13/iostream"
	.file 53 "/usr/include/c++/13/bits/ostream_insert.h"
	.file 54 "/usr/include/c++/13/bits/postypes.h"
	.file 55 "/usr/include/c++/13/bits/predefined_ops.h"
	.file 56 "/usr/include/c++/13/bits/stl_iterator.h"
	.file 57 "/usr/include/c++/13/stdlib.h"
	.file 58 "/usr/include/x86_64-linux-gnu/bits/stdint-uintn.h"
	.file 59 "/usr/include/x86_64-linux-gnu/bits/stdint-least.h"
	.file 60 "/usr/include/stdint.h"
	.file 61 "/usr/include/x86_64-linux-gnu/bits/types/struct_tm.h"
	.file 62 "/usr/include/time.h"
	.file 63 "<built-in>"
	.file 64 "/usr/include/x86_64-linux-gnu/bits/types/wint_t.h"
	.file 65 "/usr/include/x86_64-linux-gnu/bits/types/__mbstate_t.h"
	.file 66 "/usr/include/x86_64-linux-gnu/bits/types/mbstate_t.h"
	.file 67 "/usr/include/x86_64-linux-gnu/bits/types/__FILE.h"
	.file 68 "/usr/include/x86_64-linux-gnu/bits/types/struct_FILE.h"
	.file 69 "/usr/include/x86_64-linux-gnu/bits/types/FILE.h"
	.file 70 "/usr/include/wchar.h"
	.file 71 "/usr/include/locale.h"
	.file 72 "/usr/include/c++/13/bits/ptr_traits.h"
	.file 73 "/usr/include/x86_64-linux-gnu/bits/types/__fpos_t.h"
	.file 74 "/usr/include/stdio.h"
	.file 75 "/usr/include/x86_64-linux-gnu/bits/wctype-wchar.h"
	.file 76 "/usr/include/wctype.h"
	.file 77 "/usr/include/math.h"
	.file 78 "/usr/include/c++/13/pstl/execution_defs.h"
	.file 79 "/usr/include/c++/13/system_error"
	.file 80 "/usr/include/assert.h"
	.file 81 "/usr/include/c++/13/bits/memory_resource.h"
	.file 82 "/usr/include/c++/13/ext/concurrence.h"
	.section	.data.rel.local.DW.ref.__gxx_personality_v0,"awG",@progbits,DW.ref.__gxx_personality_v0,comdat
	.align 8
	.type	DW.ref.__gxx_personality_v0, @object
	.size	DW.ref.__gxx_personality_v0, 8
DW.ref.__gxx_personality_v0:
	.quad	__gxx_personality_v0
	.ident	"GCC: (Ubuntu 13.3.0-6ubuntu2~24.04) 13.3.0"
	.section	.note.GNU-stack,"",@progbits
	.section	.note.gnu.property,"a"
	.align 8
	.long	1f - 0f
	.long	4f - 1f
	.long	5
0:
	.string	"GNU"
1:
	.align 8
	.long	0xc0000002
	.long	3f - 2f
2:
	.long	0x3
3:
	.align 8
4:
